ARM Linker, 5.03 [Build 76] [MDK-ARM Standard]

==============================================================================

Section Cross References

    startup_stm32f40_41xxx.o(RESET) refers to startup_stm32f40_41xxx.o(STACK) for __initial_sp
    startup_stm32f40_41xxx.o(RESET) refers to startup_stm32f40_41xxx.o(.text) for Reset_Handler
    startup_stm32f40_41xxx.o(RESET) refers to chipay_interrupt.o(ROMCODE) for SysTick_Handler
    startup_stm32f40_41xxx.o(RESET) refers to chipay_interrupt.o(i.EXTI2_IRQHandler) for EXTI2_IRQHandler
    startup_stm32f40_41xxx.o(RESET) refers to chipay_interrupt.o(i.EXTI9_5_IRQHandler) for EXTI9_5_IRQHandler
    startup_stm32f40_41xxx.o(RESET) refers to chipay_interrupt.o(ccmram) for TIM3_IRQHandler
    startup_stm32f40_41xxx.o(RESET) refers to chipay_hardware.o(RAMCODE) for TIM4_IRQHandler
    startup_stm32f40_41xxx.o(RESET) refers to interface.o(i.USART1_IRQHandler) for USART1_IRQHandler
    startup_stm32f40_41xxx.o(RESET) refers to chipay_interrupt.o(i.EXTI15_10_IRQHandler) for EXTI15_10_IRQHandler
    startup_stm32f40_41xxx.o(.text) refers to hardware.o(i.SystemInit) for SystemInit
    startup_stm32f40_41xxx.o(.text) refers to entry.o(.ARM.Collect$$$$00000000) for __main
    chipay_digitalsample.o(i.cayDigSmpAllocateInstrument) refers to memoryallocator.o(i.memalMemDescAllocate) for memalMemDescAllocate
    chipay_digitalsample.o(i.cayDigSmpAllocateInstrument) refers to memoryallocator.o(i.memalDescGetAddr) for memalDescGetAddr
    chipay_digitalsample.o(i.cayDigSmpAllocateInstrument) refers to memoryallocator.o(i.memalWriteBLK) for memalWriteBLK
    chipay_digitalsample.o(i.cayDigSmpAllocateInstrument) refers to memoryallocator.o(i.memalFillBLK) for memalFillBLK
    chipay_digitalsample.o(i.cayDigSmpAllocateInstrumentCreatBlank) refers to memseta.o(.text) for __aeabi_memset
    chipay_digitalsample.o(i.cayDigSmpAllocateInstrumentCreatBlank) refers to chipay_digitalsample.o(i.cayDigSmpAllocateInstrument) for cayDigSmpAllocateInstrument
    chipay_digitalsample.o(i.cayDigSmpAllocateInstrumentCreatBlank) refers to chipay_digitalsample.o(i.cayDigSmpInstrumentAddByte) for cayDigSmpInstrumentAddByte
    chipay_digitalsample.o(i.cayDigSmpCalcFreq) refers to dmul.o(.text) for __aeabi_dmul
    chipay_digitalsample.o(i.cayDigSmpCalcFreq) refers to dfixui.o(.text) for __aeabi_d2uiz
    chipay_digitalsample.o(i.cayDigSmpCalcFreq) refers to dfltui.o(.text) for __aeabi_ui2d
    chipay_digitalsample.o(i.cayDigSmpCalcFreq) refers to ddiv.o(.text) for __aeabi_ddiv
    chipay_digitalsample.o(i.cayDigSmpCalcFreq) refers to dfixul.o(.text) for __aeabi_d2ulz
    chipay_digitalsample.o(i.cayDigSmpInstrumentAddByte) refers to memoryallocator.o(i.memalWriteBLK) for memalWriteBLK
    chipay_digitalplayer.o(i.PerFrCalc) refers to memcpya.o(.text) for __aeabi_memcpy4
    chipay_digitalplayer.o(i.PerFrCalc) refers to f2d.o(.text) for __aeabi_f2d
    chipay_digitalplayer.o(i.PerFrCalc) refers to pow.o(i.__hardfp_pow) for __hardfp_pow
    chipay_digitalplayer.o(i.PerFrCalc) refers to dmul.o(.text) for __aeabi_dmul
    chipay_digitalplayer.o(i.PerFrCalc) refers to d2f.o(.text) for __aeabi_d2f
    chipay_digitalplayer.o(i.PerFrCalc) refers to dfltui.o(.text) for __aeabi_ui2d
    chipay_digitalplayer.o(i.PerFrCalc) refers to dadd.o(.text) for __aeabi_dsub
    chipay_digitalplayer.o(i.PerFrCalc) refers to ddiv.o(.text) for __aeabi_ddiv
    chipay_digitalplayer.o(i.PerFrCalc) refers to chipay_digitalplayer.o(.constdata) for .constdata
    chipay_digitalplayer.o(i.XM_Player_STEP) refers to chipay_digitalplayer.o(i.XM_ChekSongEND) for XM_ChekSongEND
    chipay_digitalplayer.o(i.XM_Player_STEP) refers to chipay_digitalplayer.o(i.cayDigPlayerGoToPatLine) for cayDigPlayerGoToPatLine
    chipay_digitalplayer.o(i.XM_Player_STEP) refers to chipay_digitalplayer.o(i.cayDigPlayerExtractLineShow) for cayDigPlayerExtractLineShow
    chipay_digitalplayer.o(i.XM_Player_STEP) refers to chipay_digitalplayer.o(i.PerFrCalc) for PerFrCalc
    chipay_digitalplayer.o(i.XM_Player_STEP) refers to f2d.o(.text) for __aeabi_f2d
    chipay_digitalplayer.o(i.XM_Player_STEP) refers to cdcmple.o(.text) for __aeabi_cdcmple
    chipay_digitalplayer.o(i.XM_Player_STEP) refers to cdrcmple.o(.text) for __aeabi_cdrcmple
    chipay_digitalplayer.o(i.XM_Player_STEP) refers to dfltui.o(.text) for __aeabi_ui2d
    chipay_digitalplayer.o(i.XM_Player_STEP) refers to dmul.o(.text) for __aeabi_dmul
    chipay_digitalplayer.o(i.XM_Player_STEP) refers to dfixui.o(.text) for __aeabi_d2uiz
    chipay_digitalplayer.o(i.cayDigPlayerExtractLine) refers to memseta.o(.text) for __aeabi_memclr4
    chipay_digitalplayer.o(i.cayDigPlayerExtractLine) refers to chipay_digitalplayer.o(.bss) for digPlayer
    chipay_digitalplayer.o(i.cayDigPlayerExtractLineShow) refers to chipay_digitalplayer.o(i.cayDigPlayerExtractLine) for cayDigPlayerExtractLine
    chipay_digitalplayer.o(i.cayDigPlayerExtractLineShow) refers to interface.o(i.Send_RS_HEX) for Send_RS_HEX
    chipay_digitalplayer.o(i.cayDigPlayerExtractLineShow) refers to interface.o(i.Send_RS_String) for Send_RS_String
    chipay_digitalplayer.o(i.cayDigPlayerExtractLineShow) refers to chipay_digitalplayer.o(i.cayDigPlayerGetPatDataSTR) for cayDigPlayerGetPatDataSTR
    chipay_digitalplayer.o(i.cayDigPlayerExtractLineShow) refers to chipay_digitalplayer.o(.bss) for digPlayer
    chipay_digitalplayer.o(i.cayDigPlayerGetPatDataSTR) refers to memcpya.o(.text) for __aeabi_memcpy4
    chipay_digitalplayer.o(i.cayDigPlayerGetPatDataSTR) refers to rb_util.o(i.rb_IntToHEX) for rb_IntToHEX
    chipay_digitalplayer.o(i.cayDigPlayerGoToPatLine) refers to chipay_digitalplayer.o(i.cayDigPlayerExtractLine) for cayDigPlayerExtractLine
    chipay_digitalplayer.o(i.cayDigPlayerGoToPosLine) refers to chipay_digitalplayer.o(i.cayDigPlayerGoToPatLine) for cayDigPlayerGoToPatLine
    chipay_digitalplayer.o(i.cayDigPlayerInit) refers to memseta.o(.text) for __aeabi_memclr4
    chipay_digitalplayer.o(i.cayDigPlayerInit) refers to chipay_digitalsample.o(i.cayDigSmpSetPos) for cayDigSmpSetPos
    chipay_digitalplayer.o(i.cayDigPlayerInit) refers to chipay_digitalplayer.o(i.cayDigPlayerGoToPosLine) for cayDigPlayerGoToPosLine
    chipay_digitalplayer.o(i.cayDigPlayerPool) refers to chipay_digitalplayer.o(i.cayDigPlayerStreamFree) for cayDigPlayerStreamFree
    chipay_digitalplayer.o(i.cayDigPlayerPool) refers to chipay_digitalplayer.o(i.cayDigPlayerSTEP) for cayDigPlayerSTEP
    chipay_digitalplayer.o(i.cayDigPlayerPool) refers to memseta.o(.text) for __aeabi_memclr4
    chipay_digitalplayer.o(i.cayDigPlayerPool) refers to chipay_digitalsample.o(i.cayDigSmpGenerateBUF) for cayDigSmpGenerateBUF
    chipay_digitalplayer.o(i.cayDigPlayerPool) refers to chipay_digitalplayer.o(i.cayDigPlayerStreamWRStep) for cayDigPlayerStreamWRStep
    chipay_digitalplayer.o(i.cayDigPlayerSTEP) refers to chipay_digitalplayer.o(i.XM_Player_STEP) for XM_Player_STEP
    chipay_digitalplayer.o(i.cayDigPlayerSTEP) refers to chipay_digitalplayer.o(i.cayDigPlayerSetSamplePos) for cayDigPlayerSetSamplePos
    chipay_digitalplayer.o(i.cayDigPlayerSTEP) refers to chipay_digitalsample.o(i.cayDigSmpCalcFreq) for cayDigSmpCalcFreq
    chipay_digitalplayer.o(i.cayDigPlayerSetSamplePos) refers to chipay_digitalsample.o(i.cayDigSmpSetPos) for cayDigSmpSetPos
    chipay_digitalplayer.o(i.cayDigPlayerStreamFree) refers to chipay_digitalplayer.o(i.cayDigPlayerStreamSize) for cayDigPlayerStreamSize
    process.o(i.DoProc) refers to process.o(i.CallProc) for CallProc
    process.o(i.DoProc) refers to process.o(i.ReturnProc) for ReturnProc
    process.o(i.DoProc) refers to process.o(i.ListProcRoll) for ListProcRoll
    process.o(i.DoProc) refers to chipay_ws_process.o(i.wsPoolFlasherMode) for wsPoolFlasherMode
    process.o(i.DoProc) refers to chipay_ws_process.o(i.wsPoolTransMode) for wsPoolTransMode
    process.o(i.DoProc) refers to chipay_ws_process.o(i.wsPoolStreamMode) for wsPoolStreamMode
    process.o(i.DoProc) refers to chipay_ws_process.o(i.wsPoolDigitalPlayer) for wsPoolDigitalPlayer
    process.o(i.ListProcADD) refers to rb_fifo.o(i.rb_fifo_free) for rb_fifo_free
    process.o(i.ListProcADD) refers to rb_fifo.o(i.rb_fifo_wr_D) for rb_fifo_wr_D
    process.o(i.ListProcRoll) refers to rb_fifo.o(i.rb_fifo_rd_D) for rb_fifo_rd_D
    process.o(i.ListProcRoll) refers to process.o(i.ListProcADD) for ListProcADD
    chipay_test.o(i.TEST_Spi) refers to stm32f4xx_rcc.o(i.RCC_AHB1PeriphClockCmd) for RCC_AHB1PeriphClockCmd
    chipay_test.o(i.TEST_Spi) refers to stm32f4xx_gpio.o(i.GPIO_Init) for GPIO_Init
    chipay_test.o(i.TEST_Spi) refers to stm32f4xx_gpio.o(i.GPIO_PinAFConfig) for GPIO_PinAFConfig
    chipay_test.o(i.TEST_Spi) refers to stm32f4xx_rcc.o(i.RCC_APB2PeriphClockCmd) for RCC_APB2PeriphClockCmd
    chipay_test.o(i.TEST_Spi) refers to stm32f4xx_spi.o(i.SPI_Init) for SPI_Init
    chipay_test.o(i.TEST_Spi) refers to stm32f4xx_spi.o(i.SPI_Cmd) for SPI_Cmd
    chipay_test.o(i.TEST_Spi) refers to stm32f4xx_tim.o(i.TIM_ITConfig) for TIM_ITConfig
    chipay_test.o(i.TEST_Spi) refers to stm32f4xx_dma.o(i.DMA_Init) for DMA_Init
    chipay_test.o(i.TEST_Spi) refers to stm32f4xx_dma.o(i.DMA_Cmd) for DMA_Cmd
    chipay_test.o(i.TEST_Spi) refers to chipay_test.o(.data) for extra_buff
    chipay_test.o(i.TEST_SpiSend) refers to stm32f4xx_spi.o(i.SPI_I2S_SendData) for SPI_I2S_SendData
    chipay_test.o(i.TEST_SpiSend) refers to stm32f4xx_spi.o(i.SPI_I2S_GetFlagStatus) for SPI_I2S_GetFlagStatus
    chipay_test.o(i.TEST_SpiSend) refers to stm32f4xx_spi.o(i.SPI_I2S_ReceiveData) for SPI_I2S_ReceiveData
    main.o(i.RNG_Config) refers to stm32f4xx_rcc.o(i.RCC_AHB2PeriphClockCmd) for RCC_AHB2PeriphClockCmd
    main.o(i.RNG_Config) refers to stm32f4xx_rng.o(i.RNG_Cmd) for RNG_Cmd
    main.o(i.ShowStartInfo) refers to interface.o(i.Send_RS_String) for Send_RS_String
    main.o(i.ShowStartInfo) refers to interface.o(i.Send_RS_DEC) for Send_RS_DEC
    main.o(i.ShowStartInfo) refers to interface.o(i.Send_RS_HEX) for Send_RS_HEX
    main.o(i.ShowStartInfo) refers to interface.o(i.Send_RS_Byte) for Send_RS_Byte
    main.o(i.main) refers to bootflasherf4.o(i.bflBootCheckNeedFlashing) for bflBootCheckNeedFlashing
    main.o(i.main) refers to bootflasherf4.o(i.bflBootExtremalExecuteBlockType) for bflBootExtremalExecuteBlockType
    main.o(i.main) refers to hdinterrupt.o(i.hdIntSwitchInterruptToRAM) for hdIntSwitchInterruptToRAM
    main.o(i.main) refers to hardware.o(i.Init) for Init
    main.o(i.main) refers to interface.o(i.Uart_RS_Init) for Uart_RS_Init
    main.o(i.main) refers to main.o(i.ShowStartInfo) for ShowStartInfo
    main.o(i.main) refers to stm32f4xx_flash.o(i.FLASH_OB_Unlock) for FLASH_OB_Unlock
    main.o(i.main) refers to memoryallocator.o(i.memalInit) for memalInit
    main.o(i.main) refers to chipay.o(RAMCODE) for ChipAY_ArmInit
    main.o(i.main) refers to main.o(i.RNG_Config) for RNG_Config
    main.o(i.main) refers to chipay_hardware.o(i.chipAY_HardwareInit) for chipAY_HardwareInit
    main.o(i.main) refers to chipay_wildsound.o(RAMCODE) for ChipAY_Init
    main.o(i.main) refers to chipay_interrupt.o(ROMCODE) for chipAY_InterruptConfig
    main.o(i.main) refers to chipay_main.o(RAMCODE) for chMain
    main.o(i.main) refers to chipay_wildsound.o(RAMCODE) for ayStr
    chipay_bootflasher.o(i.chayBootFlashDo) refers to interface.o(i.Send_RS_String) for Send_RS_String
    chipay_bootflasher.o(i.chayBootFlashDo) refers to interface.o(i.Send_RS_DEC) for Send_RS_DEC
    chipay_bootflasher.o(i.chayBootFlashDo) refers to hdtimers.o(i.DelayMS) for DelayMS
    chipay_bootflasher.o(i.chayBootFlashDo) refers to bootflasherf4.o(i.bflImageStart) for bflImageStart
    chipay_bootflasher.o(i.chayBootFlashDo) refers to bootflasherf4.o(i.bflImageAddBlock) for bflImageAddBlock
    chipay_bootflasher.o(i.chayBootFlashDo) refers to bootflasherf4.o(i.bflImageAddBlockA) for bflImageAddBlockA
    chipay_bootflasher.o(i.chayBootFlashDo) refers to bootflasherf4.o(i.bflImageFinish) for bflImageFinish
    chipay_bootflasher.o(i.chayBootFlashDo) refers to bootflasherf4.o(i.bflBootCheckNeedFlashing) for bflBootCheckNeedFlashing
    chipay_bootflasher.o(i.chayBootFlashDo) refers to chipay_wildsound.o(RAMCODE) for ayStr
    chipay_bootflasher.o(i.chayBootFlashDo) refers to chipay_bootflasher.o(.constdata) for fwBootStatic
    chipay_ws_process.o(i.wsPoolDigitalPlayer) refers to chipay_digitalplayer.o(i.cayDigPlayerPool) for cayDigPlayerPool
    chipay_ws_process.o(i.wsPoolDigitalPlayer) refers to chipay_wildsound.o(RAMCODE) for ayStr
    chipay_ws_process.o(i.wsPoolDigitalPlayer) refers to chipay_digitalplayer.o(.bss) for digPlayer
    chipay_ws_process.o(i.wsPoolFlasherMode) refers to chipay_bootflasher.o(i.chayBootFlashDo) for chayBootFlashDo
    chipay_ws_process.o(i.wsPoolFlasherMode) refers to chipay_wildsound.o(RAMCODE) for ayStr
    chipay_ws_process.o(i.wsPoolStreamMode) refers to chipay_streamdata.o(i.cayStrmPool) for cayStrmPool
    chipay_ws_process.o(i.wsPoolStreamMode) refers to chipay_streamdata.o(.data) for chipAY_Stream
    chipay_ws_process.o(i.wsPoolTransMode) refers to chipay_interrupt.o(ROMCODE) for chipAY_IOConfig
    chipay_ws_process.o(i.wsPoolTransMode) refers to interface.o(i.Uart_RS_Init) for Uart_RS_Init
    chipay_ws_process.o(i.wsPoolTransMode) refers to hdports.o(i.hdGPIO_Setup) for hdGPIO_Setup
    chipay_ws_process.o(i.wsPoolTransMode) refers to chipay_interrupt.o(ccmram) for prcAYRprcR0E
    chipay_ws_process.o(i.wsPoolTransMode) refers to chipay_wildsound.o(RAMCODE) for ayStr
    chipay_ws_process.o(i.wsPoolTransMode) refers to chipay_wildsound.o(RAMCODE) for ad
    memoryallocator.o(i.ShowGroup) refers to memcpya.o(.text) for __aeabi_memcpy4
    memoryallocator.o(i.ShowGroup) refers to strlen.o(.text) for strlen
    memoryallocator.o(i.ShowGroup) refers to interface.o(i.Send_RS_String) for Send_RS_String
    memoryallocator.o(i.ShowGroup) refers to interface.o(i.Send_RS_HEX) for Send_RS_HEX
    memoryallocator.o(i.ShowMalBaseRec) refers to memcpya.o(.text) for __aeabi_memcpy4
    memoryallocator.o(i.ShowMalBaseRec) refers to strlen.o(.text) for strlen
    memoryallocator.o(i.ShowMalBaseRec) refers to interface.o(i.Send_RS_String) for Send_RS_String
    memoryallocator.o(i.ShowMalBaseRec) refers to interface.o(i.Send_RS_HEX) for Send_RS_HEX
    memoryallocator.o(i.mallocShowDesc) refers to interface.o(i.Send_RS_HEX) for Send_RS_HEX
    memoryallocator.o(i.mallocShowDesc) refers to interface.o(i.Send_RS_String) for Send_RS_String
    memoryallocator.o(i.mallocShowDesc) refers to interface.o(i.Send_RS_DEC) for Send_RS_DEC
    memoryallocator.o(i.mallocShowDesc) refers to memoryallocator.o(.data) for malDesc
    memoryallocator.o(i.mallocTets) refers to interface.o(i.Send_RS_String) for Send_RS_String
    memoryallocator.o(i.mallocTets) refers to memoryallocator.o(i.ShowMalBaseRec) for ShowMalBaseRec
    memoryallocator.o(i.mallocTets) refers to memoryallocator.o(i.memalMemDescAllocate) for memalMemDescAllocate
    memoryallocator.o(i.mallocTets) refers to interface.o(i.Send_RS_HEX) for Send_RS_HEX
    memoryallocator.o(i.mallocTets) refers to memoryallocator.o(i.mallocShowDesc) for mallocShowDesc
    memoryallocator.o(i.mallocTets) refers to memoryallocator.o(i.memalEraseAllData) for memalEraseAllData
    memoryallocator.o(i.mallocTets) refers to memcpya.o(.text) for __aeabi_memcpy4
    memoryallocator.o(i.mallocTets) refers to memoryallocator.o(i.memalWriteBLK) for memalWriteBLK
    memoryallocator.o(i.mallocTets) refers to memoryallocator.o(.bss) for malBaseList
    memoryallocator.o(i.memalAllocateBaseListSize) refers to memoryallocator.o(.bss) for malBaseList
    memoryallocator.o(i.memalBaseListByAddr) refers to memoryallocator.o(.bss) for malBaseList
    memoryallocator.o(i.memalDescAllocate) refers to memoryallocator.o(i.memalDescFreeSize) for memalDescFreeSize
    memoryallocator.o(i.memalDescAllocate) refers to memoryallocator.o(i.memalDescSetFlag) for memalDescSetFlag
    memoryallocator.o(i.memalDescAllocate) refers to memoryallocator.o(.data) for malDesc
    memoryallocator.o(i.memalDescClrFlag) refers to memoryallocator.o(.data) for malDesc
    memoryallocator.o(i.memalDescFindByAddr) refers to memoryallocator.o(.data) for malDesc
    memoryallocator.o(i.memalDescFree) refers to memoryallocator.o(.data) for malDesc
    memoryallocator.o(i.memalDescFreeSize) refers to memoryallocator.o(.data) for malDesc
    memoryallocator.o(i.memalDescGetAddr) refers to memoryallocator.o(.data) for malDesc
    memoryallocator.o(i.memalDescGetFlag) refers to memoryallocator.o(.data) for malDesc
    memoryallocator.o(i.memalDescGetSize) refers to memoryallocator.o(.data) for malDesc
    memoryallocator.o(i.memalDescInit) refers to memseta.o(.text) for __aeabi_memclr4
    memoryallocator.o(i.memalDescInit) refers to memoryallocator.o(.data) for malDesc
    memoryallocator.o(i.memalDescSetFlag) refers to memoryallocator.o(.data) for malDesc
    memoryallocator.o(i.memalEraseAllData) refers to memoryallocator.o(i.memalDescFree) for memalDescFree
    memoryallocator.o(i.memalEraseAllData) refers to memoryallocator.o(i.memalMemPackCut) for memalMemPackCut
    memoryallocator.o(i.memalEraseAllData) refers to bootflasherf4.o(i.bflFlashEraseAlignBLK) for bflFlashEraseAlignBLK
    memoryallocator.o(i.memalEraseAllData) refers to memoryallocator.o(.data) for malDesc
    memoryallocator.o(i.memalEraseAllData) refers to memoryallocator.o(.bss) for malBaseList
    memoryallocator.o(i.memalFillBLK) refers to memseta.o(.text) for __aeabi_memset
    memoryallocator.o(i.memalFillBLK) refers to memoryallocator.o(i.memalWriteBLK) for memalWriteBLK
    memoryallocator.o(i.memalFindBaseListSize) refers to memoryallocator.o(.bss) for malBaseList
    memoryallocator.o(i.memalInit) refers to memseta.o(.text) for __aeabi_memclr4
    memoryallocator.o(i.memalInit) refers to memoryallocator.o(i.ShowMalBaseRec) for ShowMalBaseRec
    memoryallocator.o(i.memalInit) refers to bootflasherf4.o(i.bflFlashSectorCfg) for bflFlashSectorCfg
    memoryallocator.o(i.memalInit) refers to malloc.o(i.malloc) for malloc
    memoryallocator.o(i.memalInit) refers to memoryallocator.o(i.memalDescInit) for memalDescInit
    memoryallocator.o(i.memalInit) refers to memoryallocator.o(.bss) for malBaseList
    memoryallocator.o(i.memalInit) refers to memoryallocator.o(.data) for malDesc
    memoryallocator.o(i.memalMemDescAllocate) refers to memoryallocator.o(i.memalDescAllocate) for memalDescAllocate
    memoryallocator.o(i.memalMemDescAllocate) refers to memoryallocator.o(i.memalFindBaseListSize) for memalFindBaseListSize
    memoryallocator.o(i.memalMemDescAllocate) refers to memoryallocator.o(i.memalAllocateBaseListSize) for memalAllocateBaseListSize
    memoryallocator.o(i.memalMemDescAllocate) refers to memoryallocator.o(i.memalDescSetFlag) for memalDescSetFlag
    memoryallocator.o(i.memalMemDescAllocate) refers to memseta.o(.text) for __aeabi_memclr
    memoryallocator.o(i.memalMemDescAllocate) refers to memoryallocator.o(i.memalDescFree) for memalDescFree
    memoryallocator.o(i.memalMemDescAllocate) refers to memoryallocator.o(.data) for malDesc
    memoryallocator.o(i.memalMemDescAllocate) refers to memoryallocator.o(.bss) for malBaseList
    memoryallocator.o(i.memalMemDescFree) refers to memoryallocator.o(i.memalDescFree) for memalDescFree
    memoryallocator.o(i.memalMemDescFree) refers to memoryallocator.o(i.memalMemPackCut) for memalMemPackCut
    memoryallocator.o(i.memalMemPackCut) refers to memoryallocator.o(i.memalBaseListByAddr) for memalBaseListByAddr
    memoryallocator.o(i.memalMemPackCut) refers to memoryallocator.o(.bss) for malBaseList
    memoryallocator.o(i.memalMemPackCut) refers to memoryallocator.o(.data) for malDesc
    memoryallocator.o(i.memalTotalSize) refers to memoryallocator.o(.bss) for malBaseList
    memoryallocator.o(i.memalWriteBLK) refers to memcpya.o(.text) for __aeabi_memcpy
    memoryallocator.o(i.memalWriteBLK) refers to bootflasherf4.o(i.bflFlashWriteBlock) for bflFlashWriteBlock
    memoryallocator.o(i.memalWriteBLK) refers to memoryallocator.o(.data) for malDesc
    chipay_streamdata.o(i.cayStrmCacheDescMemAddPOS) refers to memoryallocator.o(i.memalWriteBLK) for memalWriteBLK
    chipay_streamdata.o(i.cayStrmCacheDescMemFlush) refers to memoryallocator.o(i.memalWriteBLK) for memalWriteBLK
    chipay_streamdata.o(i.cayStrmCacheDescMemParsingINSDATA) refers to interface.o(i.Send_RS_DEC) for Send_RS_DEC
    chipay_streamdata.o(i.cayStrmCacheDescMemParsingINSDATA) refers to chipay_digitalsample.o(i.cayDigSmpInstrumentAddByte) for cayDigSmpInstrumentAddByte
    chipay_streamdata.o(i.cayStrmCacheDescMemParsingINSH) refers to chipay_digitalsample.o(i.cayDigSmpAllocateInstrumentCreatBlank) for cayDigSmpAllocateInstrumentCreatBlank
    chipay_streamdata.o(i.cayStrmCacheDescMemParsingINSH) refers to interface.o(i.Send_RS_DEC) for Send_RS_DEC
    chipay_streamdata.o(i.cayStrmCacheDescMemParsingINSH) refers to interface.o(i.Send_RS_String) for Send_RS_String
    chipay_streamdata.o(i.cayStrmCacheDescMemParsingINSH) refers to chipay_digitalsample.o(i.cayDigSmpAllocateInstrument) for cayDigSmpAllocateInstrument
    chipay_streamdata.o(i.cayStrmCacheDescMemParsingINSH) refers to memoryallocator.o(.data) for malDesc
    chipay_streamdata.o(i.cayStrmCacheDescMemParsingTRACK) refers to memoryallocator.o(.data) for malDesc
    chipay_streamdata.o(i.cayStrmClear) refers to rb_fifo.o(i.rb_fifo_clear) for rb_fifo_clear
    chipay_streamdata.o(i.cayStrmFifoINrdB) refers to rb_fifo.o(i.rb_fifo_size) for rb_fifo_size
    chipay_streamdata.o(i.cayStrmFifoINrdB) refers to rb_fifo.o(i.rb_fifo_rd) for rb_fifo_rd
    chipay_streamdata.o(i.cayStrmFifoINwrB) refers to rb_fifo.o(i.rb_fifo_free) for rb_fifo_free
    chipay_streamdata.o(i.cayStrmFifoINwrB) refers to rb_fifo.o(i.rb_fifo_wr) for rb_fifo_wr
    chipay_streamdata.o(i.cayStrmFifoINwrClear) refers to rb_fifo.o(i.rb_fifo_clear) for rb_fifo_clear
    chipay_streamdata.o(i.cayStrmFifoINwrFree) refers to rb_fifo.o(i.rb_fifo_free) for rb_fifo_free
    chipay_streamdata.o(i.cayStrmFifoINwrSize) refers to rb_fifo.o(i.rb_fifo_size) for rb_fifo_size
    chipay_streamdata.o(i.cayStrmFifoOUrdB) refers to rb_fifo.o(i.rb_fifo_size) for rb_fifo_size
    chipay_streamdata.o(i.cayStrmFifoOUrdB) refers to rb_fifo.o(i.rb_fifo_rd) for rb_fifo_rd
    chipay_streamdata.o(i.cayStrmFifoOUwrB) refers to rb_fifo.o(i.rb_fifo_free) for rb_fifo_free
    chipay_streamdata.o(i.cayStrmFifoOUwrB) refers to rb_fifo.o(i.rb_fifo_wr) for rb_fifo_wr
    chipay_streamdata.o(i.cayStrmFifoOUwrClear) refers to rb_fifo.o(i.rb_fifo_clear) for rb_fifo_clear
    chipay_streamdata.o(i.cayStrmFifoOUwrFree) refers to rb_fifo.o(i.rb_fifo_free) for rb_fifo_free
    chipay_streamdata.o(i.cayStrmFifoOUwrSize) refers to rb_fifo.o(i.rb_fifo_size) for rb_fifo_size
    chipay_streamdata.o(i.cayStrmPool) refers to interface.o(i.Send_RS_String) for Send_RS_String
    chipay_streamdata.o(i.cayStrmPool) refers to rb_fifo.o(i.rb_fifo_clear) for rb_fifo_clear
    chipay_streamdata.o(i.cayStrmPool) refers to memoryallocator.o(i.memalEraseAllData) for memalEraseAllData
    chipay_streamdata.o(i.cayStrmPool) refers to memoryallocator.o(i.memalMemDescAllocate) for memalMemDescAllocate
    chipay_streamdata.o(i.cayStrmPool) refers to interface.o(i.Send_RS_DEC) for Send_RS_DEC
    chipay_streamdata.o(i.cayStrmPool) refers to rb_fifo.o(i.rb_fifo_size) for rb_fifo_size
    chipay_streamdata.o(i.cayStrmPool) refers to memoryallocator.o(i.memalWriteBLK) for memalWriteBLK
    chipay_streamdata.o(i.cayStrmPool) refers to rb_fifo.o(i.rb_fifo_rd) for rb_fifo_rd
    chipay_streamdata.o(i.cayStrmPool) refers to chipay_digitalsample.o(i.cayDigSmpInstrumentAddByte) for cayDigSmpInstrumentAddByte
    chipay_streamdata.o(i.cayStrmPool) refers to chipay_wildsound.o(RAMCODE) for ayStr
    chipay_streamdata.o(i.cayStrmPool) refers to chipay_streamdata.o(i.cayStrmCacheDescMemParsingTRACK) for cayStrmCacheDescMemParsingTRACK
    chipay_streamdata.o(i.cayStrmPool) refers to chipay_streamdata.o(i.cayStrmCacheDescMemParsingINSH) for cayStrmCacheDescMemParsingINSH
    chipay_streamdata.o(i.cayStrmPool) refers to chipay_digitalplayer.o(i.cayDigPlayerInit) for cayDigPlayerInit
    chipay_streamdata.o(i.cayStrmPool) refers to interface.o(i.Send_RS_HEX) for Send_RS_HEX
    chipay_streamdata.o(i.cayStrmPool) refers to chipay_digitalplayer.o(i.cayDigPlayerPool) for cayDigPlayerPool
    chipay_streamdata.o(i.cayStrmPool) refers to chipay_digitalplayer.o(.bss) for digPlayer
    chipay_streamdata.o(.data) refers to chipay_streamdata.o(.bss) for chipAY_StreamFifoIN_buf
    chipay_streamdata.o(.data) refers to chipay_streamdata.o(.bss) for chipAY_StreamFifoOUT_buf
    chipay_streamdata.o(.data) refers to chipay_streamdata.o(.data) for chipAY_StreamFifoIN
    chipay_streamdata.o(.data) refers to chipay_streamdata.o(.data) for chipAY_StreamFifoOUT
    chipay_streamdata.o(.data) refers to chipay_digitalplayer.o(.bss) for digPlayer
    chipay_streamdata.o(.data) refers to chipay_streamdata.o(i.cayStrmCacheDescMemParsingNOP) for cayStrmCacheDescMemParsingNOP
    chipay.o(RAMCODE) refers to chipay_wildsound.o(RAMCODE) for EnvRndTAB
    chipay_interrupt.o(ccmram) refers to chipay_interrupt.o(ccmram) for EXT_DoAyBusReg
    chipay_interrupt.o(ccmram) refers to chipay_wildsound.o(RAMCODE) for ayStr
    chipay_interrupt.o(ROMCODE) refers to chipay_interrupt.o(ccmram) for EXT_DoAyBusReg
    chipay_interrupt.o(ROMCODE) refers to toupper.o(.text) for toupper
    chipay_interrupt.o(ROMCODE) refers to strcmp.o(.text) for strcmp
    chipay_interrupt.o(ROMCODE) refers to strlen.o(.text) for strlen
    chipay_interrupt.o(ROMCODE) refers to rb_util.o(i.rb_IntToStr) for rb_IntToStr
    chipay_interrupt.o(ROMCODE) refers to strcat.o(.text) for strcat
    chipay_interrupt.o(ROMCODE) refers to stm32f4xx_rcc.o(i.RCC_APB2PeriphClockCmd) for RCC_APB2PeriphClockCmd
    chipay_interrupt.o(ROMCODE) refers to stm32f4xx_syscfg.o(i.SYSCFG_EXTILineConfig) for SYSCFG_EXTILineConfig
    chipay_interrupt.o(ROMCODE) refers to stm32f4xx_exti.o(i.EXTI_Init) for EXTI_Init
    chipay_interrupt.o(ROMCODE) refers to misc.o(i.NVIC_Init) for NVIC_Init
    chipay_interrupt.o(ROMCODE) refers to chipay_wildsound.o(RAMCODE) for ayStr
    chipay_interrupt.o(ROMCODE) refers to chipay_interrupt.o(.data) for .data
    chipay_interrupt.o(ROMCODE) refers to chipay_interrupt.o(ccmram) for ccmram
    chipay_interrupt.o(ROMCODE) refers to stm32f4xx_rcc.o(i.RCC_AHB1PeriphClockCmd) for RCC_AHB1PeriphClockCmd
    chipay_interrupt.o(ROMCODE) refers to stm32f4xx_gpio.o(i.GPIO_Init) for GPIO_Init
    chipay_interrupt.o(ROMCODE) refers to stm32f4xx_gpio.o(i.GPIO_PinAFConfig) for GPIO_PinAFConfig
    chipay_interrupt.o(ROMCODE) refers to stm32f4xx_rcc.o(i.RCC_APB1PeriphClockCmd) for RCC_APB1PeriphClockCmd
    chipay_interrupt.o(ROMCODE) refers to stm32f4xx_tim.o(i.TIM_TimeBaseStructInit) for TIM_TimeBaseStructInit
    chipay_interrupt.o(ROMCODE) refers to chipay_hardware.o(i.chipAY_TimerFreq) for chipAY_TimerFreq
    chipay_interrupt.o(ROMCODE) refers to stm32f4xx_tim.o(i.TIM_TimeBaseInit) for TIM_TimeBaseInit
    chipay_interrupt.o(ROMCODE) refers to stm32f4xx_tim.o(i.TIM_ICInit) for TIM_ICInit
    chipay_interrupt.o(ROMCODE) refers to stm32f4xx_tim.o(i.TIM_DMACmd) for TIM_DMACmd
    chipay_interrupt.o(ROMCODE) refers to stm32f4xx_tim.o(i.TIM_ITConfig) for TIM_ITConfig
    chipay_interrupt.o(ROMCODE) refers to hdinterrupt.o(i.hdIntSetVector) for hdIntSetVector
    chipay_interrupt.o(ROMCODE) refers to uldiv.o(.text) for __aeabi_uldivmod
    chipay_interrupt.o(ROMCODE) refers to hardware.o(.data) for isRbousCFG
    chipay_interrupt.o(ROMCODE) refers to chipay_interrupt.o(ccmram) for ccmram
    chipay_interrupt.o(ccmram) refers to chipay_streamdata.o(i.cayStrmFlagGet) for cayStrmFlagGet
    chipay_interrupt.o(ccmram) refers to chipay_streamdata.o(i.cayStrmFifoOUwrFree) for cayStrmFifoOUwrFree
    chipay_interrupt.o(ccmram) refers to chipay_streamdata.o(i.cayStrmFifoINwrSize) for cayStrmFifoINwrSize
    chipay_interrupt.o(ccmram) refers to chipay_wildsound.o(RAMCODE) for ayStr
    chipay_interrupt.o(ccmram) refers to chipay_wildsound.o(RAMCODE) for ad
    chipay_interrupt.o(ccmram) refers to hardware.o(.data) for isRbousCFG
    chipay_interrupt.o(ccmram) refers to chipay_interrupt.o(ccmram) for ccmram
    chipay_interrupt.o(ccmram) refers to chipay_streamdata.o(.data) for chipAY_Stream
    chipay_interrupt.o(ccmram) refers to chipay_interrupt.o(ccmram) for ccmram
    chipay_interrupt.o(ccmram) refers to interface.o(i.Read_RS_Size) for Read_RS_Size
    chipay_interrupt.o(ccmram) refers to interface.o(i.Read_RS_Byte) for Read_RS_Byte
    chipay_interrupt.o(ccmram) refers to interface.o(i.Send_RS_FREEBusy) for Send_RS_FREEBusy
    chipay_interrupt.o(ccmram) refers to hdtimers.o(i.Timer_1ms_CounterUpdate) for Timer_1ms_CounterUpdate
    chipay_interrupt.o(ccmram) refers to chipay_interrupt.o(ccmram) for ccmram
    chipay_interrupt.o(ccmram) refers to hdtimers.o(.bss) for MPU_ClocksStatus
    chipay_interrupt.o(ccmram) refers to interface.o(i.Send_RS_B) for Send_RS_B
    chipay_interrupt.o(ccmram) refers to chipay_streamdata.o(i.cayStrmClear) for cayStrmClear
    chipay_interrupt.o(ccmram) refers to chipay_streamdata.o(i.cayStrmCmdSet) for cayStrmCmdSet
    chipay_interrupt.o(ccmram) refers to chipay_streamdata.o(i.cayStrmFifoOUwrB) for cayStrmFifoOUwrB
    chipay_interrupt.o(ccmram) refers to chipay_streamdata.o(i.cayStrmFlagSet) for cayStrmFlagSet
    chipay_interrupt.o(i.EXTI15_10_IRQHandler) refers to stm32f4xx_exti.o(i.EXTI_ClearITPendingBit) for EXTI_ClearITPendingBit
    chipay_interrupt.o(i.EXTI15_10_IRQHandler) refers to chipay_interrupt.o(ccmram) for EXT_DoAyBusUpdate
    chipay_interrupt.o(i.EXTI15_10_IRQHandler) refers to chipay_wildsound.o(RAMCODE) for ayStr
    chipay_interrupt.o(i.EXTI2_IRQHandler) refers to stm32f4xx_exti.o(i.EXTI_ClearITPendingBit) for EXTI_ClearITPendingBit
    chipay_interrupt.o(i.EXTI9_5_IRQHandler) refers to stm32f4xx_exti.o(i.EXTI_ClearITPendingBit) for EXTI_ClearITPendingBit
    chipay_interrupt.o(i.EXTI9_5_IRQHandler) refers to chipay_interrupt.o(ccmram) for EXT_DoAyBusUpdate
    chipay_interrupt.o(i.EXTI9_5_IRQHandler) refers to chipay_wildsound.o(RAMCODE) for ayStr
    chipay_interrupt.o(.data) refers to chipay_interrupt.o(.conststring) for .conststring
    chipay_interrupt.o(ccmram) refers to chipay_interrupt.o(ccmram) for prcAY0prcR00
    chipay_hardware.o(RAMCODE) refers to chipay_wildsound.o(RAMCODE) for ChipAY_Mixer
    chipay_hardware.o(RAMCODE) refers to chipay.o(RAMCODE) for ChipAY_TiksARM
    chipay_hardware.o(RAMCODE) refers to chipay_digitalplayer.o(i.cayDigPlayerStreamGet) for cayDigPlayerStreamGet
    chipay_hardware.o(RAMCODE) refers to stm32f4xx_tim.o(i.TIM_ClearITPendingBit) for TIM_ClearITPendingBit
    chipay_hardware.o(RAMCODE) refers to chipay_wildsound.o(RAMCODE) for ayStr
    chipay_hardware.o(RAMCODE) refers to chipay_hardware.o(RAMCODE) for RAMCODE
    chipay_hardware.o(RAMCODE) refers to chipay_digitalplayer.o(.bss) for digPlayer
    chipay_hardware.o(RAMCODE) refers to chipay_hardware.o(RAMCODE) for RAMCODE
    chipay_hardware.o(i.chipAY_DacSetup) refers to stm32f4xx_rcc.o(i.RCC_APB1PeriphClockCmd) for RCC_APB1PeriphClockCmd
    chipay_hardware.o(i.chipAY_DacSetup) refers to stm32f4xx_dac.o(i.DAC_Init) for DAC_Init
    chipay_hardware.o(i.chipAY_DacSetup) refers to stm32f4xx_dac.o(i.DAC_DMACmd) for DAC_DMACmd
    chipay_hardware.o(i.chipAY_DacSetup) refers to stm32f4xx_dac.o(i.DAC_Cmd) for DAC_Cmd
    chipay_hardware.o(i.chipAY_DacSetup) refers to stm32f4xx_rcc.o(i.RCC_AHB1PeriphClockCmd) for RCC_AHB1PeriphClockCmd
    chipay_hardware.o(i.chipAY_DacSetup) refers to stm32f4xx_dma.o(i.DMA_Init) for DMA_Init
    chipay_hardware.o(i.chipAY_DacSetup) refers to stm32f4xx_dma.o(i.DMA_Cmd) for DMA_Cmd
    chipay_hardware.o(i.chipAY_DacSetup) refers to chipay_hardware.o(i.chipAY_TimerSetupX) for chipAY_TimerSetupX
    chipay_hardware.o(i.chipAY_DacSetup) refers to stm32f4xx_tim.o(i.TIM_ITConfig) for TIM_ITConfig
    chipay_hardware.o(i.chipAY_DacSetup) refers to stm32f4xx_tim.o(i.TIM_SelectOutputTrigger) for TIM_SelectOutputTrigger
    chipay_hardware.o(i.chipAY_DacSetup) refers to misc.o(i.NVIC_Init) for NVIC_Init
    chipay_hardware.o(i.chipAY_DacSetup) refers to chipay_hardware.o(RAMCODE) for RAMCODE
    chipay_hardware.o(i.chipAY_DacSetup) refers to chipay_hardware.o(RAMCODE) for RAMCODE
    chipay_hardware.o(i.chipAY_HardwareInit) refers to chipay_hardware.o(i.chipAY_DacSetup) for chipAY_DacSetup
    chipay_hardware.o(i.chipAY_HardwareInit) refers to chipay_hardware.o(i.chipAY_TimerSetup) for chipAY_TimerSetup
    chipay_hardware.o(i.chipAY_TimerFreq) refers to chipay_hardware.o(i.chipAY_TimerRCC) for chipAY_TimerRCC
    chipay_hardware.o(i.chipAY_TimerFreq) refers to stm32f4xx_rcc.o(i.RCC_GetClocksFreq) for RCC_GetClocksFreq
    chipay_hardware.o(i.chipAY_TimerRCC) refers to stm32f4xx_rcc.o(i.RCC_APB1PeriphClockCmd) for RCC_APB1PeriphClockCmd
    chipay_hardware.o(i.chipAY_TimerRCC) refers to stm32f4xx_rcc.o(i.RCC_APB2PeriphClockCmd) for RCC_APB2PeriphClockCmd
    chipay_hardware.o(i.chipAY_TimerSetup) refers to chipay_hardware.o(i.chipAY_TimerSetupX) for chipAY_TimerSetupX
    chipay_hardware.o(i.chipAY_TimerSetup) refers to stm32f4xx_tim.o(i.TIM_Cmd) for TIM_Cmd
    chipay_hardware.o(i.chipAY_TimerSetup) refers to stm32f4xx_tim.o(i.TIM_SelectOutputTrigger) for TIM_SelectOutputTrigger
    chipay_hardware.o(i.chipAY_TimerSetup) refers to stm32f4xx_tim.o(i.TIM_SelectMasterSlaveMode) for TIM_SelectMasterSlaveMode
    chipay_hardware.o(i.chipAY_TimerSetup) refers to stm32f4xx_tim.o(i.TIM_SelectInputTrigger) for TIM_SelectInputTrigger
    chipay_hardware.o(i.chipAY_TimerSetup) refers to stm32f4xx_tim.o(i.TIM_SelectSlaveMode) for TIM_SelectSlaveMode
    chipay_hardware.o(i.chipAY_TimerSetup) refers to chipay_hardware.o(.constdata) for .constdata
    chipay_hardware.o(i.chipAY_TimerSetupX) refers to chipay_hardware.o(i.chipAY_TimerRCC) for chipAY_TimerRCC
    chipay_hardware.o(i.chipAY_TimerSetupX) refers to stm32f4xx_rcc.o(i.RCC_GetClocksFreq) for RCC_GetClocksFreq
    chipay_hardware.o(i.chipAY_TimerSetupX) refers to stm32f4xx_tim.o(i.TIM_TimeBaseStructInit) for TIM_TimeBaseStructInit
    chipay_hardware.o(i.chipAY_TimerSetupX) refers to stm32f4xx_tim.o(i.TIM_TimeBaseInit) for TIM_TimeBaseInit
    chipay_hardware.o(i.chipAY_TimerSetupX) refers to stm32f4xx_tim.o(i.TIM_SelectMasterSlaveMode) for TIM_SelectMasterSlaveMode
    chipay_hardware.o(i.chipAY_TimerSetupX) refers to stm32f4xx_tim.o(i.TIM_OC4Init) for TIM_OC4Init
    chipay_hardware.o(i.chipAY_TimerSetupX) refers to stm32f4xx_tim.o(i.TIM_OC4PreloadConfig) for TIM_OC4PreloadConfig
    chipay_hardware.o(i.chipAY_TimerSetupX) refers to stm32f4xx_tim.o(i.TIM_OC3Init) for TIM_OC3Init
    chipay_hardware.o(i.chipAY_TimerSetupX) refers to stm32f4xx_tim.o(i.TIM_OC3PreloadConfig) for TIM_OC3PreloadConfig
    chipay_hardware.o(i.chipAY_TimerSetupX) refers to stm32f4xx_tim.o(i.TIM_OC2Init) for TIM_OC2Init
    chipay_hardware.o(i.chipAY_TimerSetupX) refers to stm32f4xx_tim.o(i.TIM_OC2PreloadConfig) for TIM_OC2PreloadConfig
    chipay_hardware.o(i.chipAY_TimerSetupX) refers to stm32f4xx_tim.o(i.TIM_OC1Init) for TIM_OC1Init
    chipay_hardware.o(i.chipAY_TimerSetupX) refers to stm32f4xx_tim.o(i.TIM_OC1PreloadConfig) for TIM_OC1PreloadConfig
    chipay_hardware.o(i.chipAY_TimerSetupX) refers to stm32f4xx_tim.o(i.TIM_BDTRStructInit) for TIM_BDTRStructInit
    chipay_hardware.o(i.chipAY_TimerSetupX) refers to stm32f4xx_tim.o(i.TIM_BDTRConfig) for TIM_BDTRConfig
    chipay_hardware.o(i.chipAY_TimerSetupX) refers to stm32f4xx_tim.o(i.TIM_Cmd) for TIM_Cmd
    chipay_wildsound.o(RAMCODE) refers to chipay_wildsound.o(RAMCODE) for RAMCODE
    chipay_wildsound.o(RAMCODE) refers to chipay_interrupt.o(ccmram) for tbl_AYREGPER_proc
    chipay_wildsound.o(RAMCODE) refers to chipay_wildsound.o(RAMCODE) for RAMCODE
    chipay_main.o(RAMCODE) refers to stm32f4xx_rcc.o(i.RCC_DeInit) for RCC_DeInit
    chipay_main.o(RAMCODE) refers to process.o(i.ListProcADD) for ListProcADD
    chipay_main.o(RAMCODE) refers to process.o(i.DoProc) for DoProc
    chipay_main.o(RAMCODE) refers to hdtimers.o(i.WaitMS_CheckContinue) for WaitMS_CheckContinue
    chipay_main.o(RAMCODE) refers to chipay_main.o(RAMCODE) for RAMCODE
    chipay_main.o(RAMCODE) refers to chipay_wildsound.o(RAMCODE) for ayStr
    chipay_main.o(RAMCODE) refers to chipay_main.o(RAMCODE) for process_main_list_buf
    chipay_main.o(RAMCODE) refers to chipay_main.o(RAMCODE) for process_main_call_buf
    chipay_main.o(RAMCODE) refers to chipay_main.o(RAMCODE) for process_main_list
    chipay_main.o(RAMCODE) refers to chipay_main.o(RAMCODE) for process_main_timers_buf
    chipay_main.o(RAMCODE) refers to chipay_main.o(RAMCODE) for process_aydac_call_buf
    chipay_main.o(RAMCODE) refers to chipay_main.o(RAMCODE) for process_aydac_list
    chipay_main.o(RAMCODE) refers to chipay_main.o(RAMCODE) for process_aydac_timers_buf
    chipay_main.o(RAMCODE) refers to chipay_main.o(RAMCODE) for process_aydac_list_buf
    bootflasherf4.o(i.FLASH_ErasePage) refers to bootflasherf4.o(i.bflFlashSectorCfg) for bflFlashSectorCfg
    bootflasherf4.o(i.FLASH_ErasePage) refers to stm32f4xx_flash.o(i.FLASH_EraseSector) for FLASH_EraseSector
    bootflasherf4.o(i.bflBootBlockAddr) refers to bootflasherf4.o(i.flashtop) for flashtop
    bootflasherf4.o(i.bflBootBlockAddr) refers to bootflasherf4.o(.data) for bflRecBlocksNum
    bootflasherf4.o(i.bflBootBlockPBUF) refers to bootflasherf4.o(i.bflBootBlockAddr) for bflBootBlockAddr
    bootflasherf4.o(i.bflBootBlockPTR) refers to bootflasherf4.o(i.bflBootBlockAddr) for bflBootBlockAddr
    bootflasherf4.o(i.bflBootBlocks) refers to bootflasherf4.o(i.flashtop) for flashtop
    bootflasherf4.o(i.bflBootBlocks) refers to bootflasherf4.o(.data) for bflRecBlocksSize
    bootflasherf4.o(i.bflBootBlocksGetCRC) refers to bootflasherf4.o(i.bflBootBlocks) for bflBootBlocks
    bootflasherf4.o(i.bflBootBlocksGetCRC) refers to rb_crc16.o(i.crc16_blk_CCITT) for crc16_blk_CCITT
    bootflasherf4.o(i.bflBootBlocksGetCRC) refers to bootflasherf4.o(.data) for bflRecBlocksSize
    bootflasherf4.o(i.bflBootCheckNeedFlashing) refers to bootflasherf4.o(i.bflBootBlocks) for bflBootBlocks
    bootflasherf4.o(i.bflBootCheckNeedFlashing) refers to bootflasherf4.o(i.bflBootBlocksGetCRC) for bflBootBlocksGetCRC
    bootflasherf4.o(i.bflBootCheckNeedFlashing) refers to bootflasherf4.o(.data) for bflRecBlocksStart
    bootflasherf4.o(i.bflBootExtremalExecuteBlock) refers to bootflasherf4.o(i.bflBootBlockPTR) for bflBootBlockPTR
    bootflasherf4.o(i.bflBootExtremalExecuteBlock) refers to bootflasherf4.o(.emb_text) for bflBootExtremalCopyExec
    bootflasherf4.o(i.bflBootExtremalExecuteBlockType) refers to bootflasherf4.o(i.bflBootFindByType) for bflBootFindByType
    bootflasherf4.o(i.bflBootExtremalExecuteBlockType) refers to bootflasherf4.o(i.bflBootExtremalExecuteBlock) for bflBootExtremalExecuteBlock
    bootflasherf4.o(i.bflBootFindByType) refers to bootflasherf4.o(i.bflBootBlocks) for bflBootBlocks
    bootflasherf4.o(i.bflBootFindByType) refers to bootflasherf4.o(i.bflBootBlockPTR) for bflBootBlockPTR
    bootflasherf4.o(i.bflBootFlashDisable) refers to bootflasherf4.o(i.flashtop) for flashtop
    bootflasherf4.o(i.bflBootFlashDisable) refers to bootflasherf4.o(i.bflFlashEraseAlignBLK) for bflFlashEraseAlignBLK
    bootflasherf4.o(i.bflBootProgramBlock) refers to bootflasherf4.o(i.bflBootBlockPTR) for bflBootBlockPTR
    bootflasherf4.o(i.bflBootProgramBlock) refers to bootflasherf4.o(i.flashaddr) for flashaddr
    bootflasherf4.o(i.bflBootProgramBlock) refers to bootflasherf4.o(i.flashtop) for flashtop
    bootflasherf4.o(i.bflBootProgramBlock) refers to bootflasherf4.o(i.bflBootProgramErase) for bflBootProgramErase
    bootflasherf4.o(i.bflBootProgramBlockType) refers to bootflasherf4.o(i.bflBootFindByType) for bflBootFindByType
    bootflasherf4.o(i.bflBootProgramBlockType) refers to bootflasherf4.o(i.bflBootProgramBlock) for bflBootProgramBlock
    bootflasherf4.o(i.bflBootProgramErase) refers to bootflasherf4.o(i.flashaddr) for flashaddr
    bootflasherf4.o(i.bflBootProgramErase) refers to bootflasherf4.o(i.bflFlashCompareBlock) for bflFlashCompareBlock
    bootflasherf4.o(i.bflBootProgramErase) refers to bootflasherf4.o(i.bflFlashEraseAlignBLK) for bflFlashEraseAlignBLK
    bootflasherf4.o(i.bflBootProgramErase) refers to bootflasherf4.o(i.bflFlashWriteBlock) for bflFlashWriteBlock
    bootflasherf4.o(i.bflDataAddBuffer) refers to bootflasherf4.o(i.bflDataAddByte) for bflDataAddByte
    bootflasherf4.o(i.bflDataAddByte) refers to rb_base64m.o(i.BASE64m_DeCode) for BASE64m_DeCode
    bootflasherf4.o(i.bflDataAddByte) refers to bootflasherf4.o(i.flashsize) for flashsize
    bootflasherf4.o(i.bflDataAddByte) refers to bootflasherf4.o(i.flashtop) for flashtop
    bootflasherf4.o(i.bflDataAddByte) refers to bootflasherf4.o(i.bflFlashEraseAlignBLK) for bflFlashEraseAlignBLK
    bootflasherf4.o(i.bflDataAddByte) refers to bootflasherf4.o(i.bflFlashWriteBlock) for bflFlashWriteBlock
    bootflasherf4.o(i.bflDataAddByte) refers to bootflasherf4.o(i.bflDataStart) for bflDataStart
    bootflasherf4.o(i.bflDataAddByte) refers to bootflasherf4.o(.data) for fbufp
    bootflasherf4.o(i.bflDataAddByte) refers to bootflasherf4.o(.bss) for fbuf
    bootflasherf4.o(i.bflDataAddByte) refers to rb_base64m.o(.data) for bas64m
    bootflasherf4.o(i.bflDataStart) refers to rb_base64m.o(i.BASE64m_Init) for BASE64m_Init
    bootflasherf4.o(i.bflDataStart) refers to bootflasherf4.o(.data) for fbufp
    bootflasherf4.o(i.bflDataStart) refers to bootflasherf4.o(.constdata) for BFbase64mSTR
    bootflasherf4.o(i.bflDataStart) refers to rb_base64m.o(.data) for bas64m
    bootflasherf4.o(i.bflFlashErase) refers to stm32f4xx_flash.o(i.FLASH_Unlock) for FLASH_Unlock
    bootflasherf4.o(i.bflFlashErase) refers to stm32f4xx_flash.o(i.FLASH_ClearFlag) for FLASH_ClearFlag
    bootflasherf4.o(i.bflFlashErase) refers to bootflasherf4.o(i.FLASH_ErasePage) for FLASH_ErasePage
    bootflasherf4.o(i.bflFlashErase) refers to stm32f4xx_flash.o(i.FLASH_Lock) for FLASH_Lock
    bootflasherf4.o(i.bflFlashErase) refers to stm32f4xx_flash.o(i.FLASH_InstructionCacheReset) for FLASH_InstructionCacheReset
    bootflasherf4.o(i.bflFlashErase) refers to stm32f4xx_flash.o(i.FLASH_DataCacheReset) for FLASH_DataCacheReset
    bootflasherf4.o(i.bflFlashEraseAlignBLK) refers to bootflasherf4.o(i.bflFlashErase) for bflFlashErase
    bootflasherf4.o(i.bflFlashSectorCfg) refers to bootflasherf4.o(i.flashaddr) for flashaddr
    bootflasherf4.o(i.bflFlashWriteBlock) refers to stm32f4xx_flash.o(i.FLASH_Unlock) for FLASH_Unlock
    bootflasherf4.o(i.bflFlashWriteBlock) refers to stm32f4xx_flash.o(i.FLASH_ClearFlag) for FLASH_ClearFlag
    bootflasherf4.o(i.bflFlashWriteBlock) refers to stm32f4xx_flash.o(i.FLASH_ProgramHalfWord) for FLASH_ProgramHalfWord
    bootflasherf4.o(i.bflFlashWriteBlock) refers to stm32f4xx_flash.o(i.FLASH_Lock) for FLASH_Lock
    bootflasherf4.o(i.bflFlashWriteBlock) refers to stm32f4xx_flash.o(i.FLASH_InstructionCacheReset) for FLASH_InstructionCacheReset
    bootflasherf4.o(i.bflFlashWriteBlock) refers to stm32f4xx_flash.o(i.FLASH_DataCacheReset) for FLASH_DataCacheReset
    bootflasherf4.o(i.bflImageAddBlock) refers to bootflasherf4.o(i.bflImageAddBlockA) for bflImageAddBlockA
    bootflasherf4.o(i.bflImageAddBlockA) refers to memcpya.o(.text) for __aeabi_memcpy4
    bootflasherf4.o(i.bflImageAddBlockA) refers to bootflasherf4.o(i.flashtop) for flashtop
    bootflasherf4.o(i.bflImageAddBlockA) refers to bootflasherf4.o(i.bflFlashWriteBlock) for bflFlashWriteBlock
    bootflasherf4.o(i.bflImageAddBlockA) refers to bootflasherf4.o(.bss) for bflImgRec
    bootflasherf4.o(i.bflImageAddBlockA) refers to bootflasherf4.o(.constdata) for .constdata
    bootflasherf4.o(i.bflImageFinish) refers to bootflasherf4.o(i.bflImageAddBlock) for bflImageAddBlock
    bootflasherf4.o(i.bflImageFinish) refers to bootflasherf4.o(i.flashtop) for flashtop
    bootflasherf4.o(i.bflImageFinish) refers to rb_crc16.o(i.crc16_blk_CCITT) for crc16_blk_CCITT
    bootflasherf4.o(i.bflImageFinish) refers to rb_crc16.o(i.crc16_blk) for crc16_blk
    bootflasherf4.o(i.bflImageFinish) refers to bootflasherf4.o(i.bflFlashWriteBlock) for bflFlashWriteBlock
    bootflasherf4.o(i.bflImageFinish) refers to bootflasherf4.o(.bss) for bflImgRec
    bootflasherf4.o(i.bflImageStart) refers to bootflasherf4.o(i.bflBootFlashDisable) for bflBootFlashDisable
    bootflasherf4.o(i.bflImageStart) refers to memseta.o(.text) for __aeabi_memclr
    bootflasherf4.o(i.bflImageStart) refers to bootflasherf4.o(i.flashtop) for flashtop
    bootflasherf4.o(i.bflImageStart) refers to bootflasherf4.o(.bss) for bflImgRec
    bootflasherf4.o(i.flashtop) refers to bootflasherf4.o(i.flashaddr) for flashaddr
    bootflasherf4.o(i.flashtop) refers to bootflasherf4.o(i.flashsize) for flashsize
    rb_base64m.o(i.BASE64_T_TBD) refers to memchr.o(.text) for memchr
    rb_base64m.o(i.BASE64m_DeCode) refers to memchr.o(.text) for memchr
    rb_base64m.o(i.BASE64m_DeCodeStep) refers to memchr.o(.text) for memchr
    rb_base64m.o(i.BASE64m_EnCode) refers to rb_base64m.o(i.BASE64m_EnCodeStepD) for BASE64m_EnCodeStepD
    rb_base64m.o(i.BASE64m_EnCodeStepPTR) refers to rb_base64m.o(i.BASE64m_EnCodeStepD) for BASE64m_EnCodeStepD
    rb_fifo.o(i.rb_fifo_ofs_rd) refers to rb_fifo.o(i.rb_fifo_ofs_rd_blk) for rb_fifo_ofs_rd_blk
    rb_fifo.o(i.rb_fifo_ofs_rd_D) refers to rb_fifo.o(i.rb_fifo_ofs_rd_blk) for rb_fifo_ofs_rd_blk
    rb_fifo.o(i.rb_fifo_ofs_rd_T) refers to rb_fifo.o(i.rb_fifo_ofs_rd_blk) for rb_fifo_ofs_rd_blk
    rb_fifo.o(i.rb_fifo_ofs_rd_W) refers to rb_fifo.o(i.rb_fifo_ofs_rd_blk) for rb_fifo_ofs_rd_blk
    rb_fifo.o(i.rb_fifo_ofs_rd_blk) refers to memcpya.o(.text) for __aeabi_memcpy
    rb_fifo.o(i.rb_fifo_ofs_rd_blk_is) refers to memcpya.o(.text) for __aeabi_memcpy
    rb_fifo.o(i.rb_fifo_rd_D) refers to memcpya.o(.text) for __aeabi_memcpy
    rb_fifo.o(i.rb_fifo_rd_W) refers to memcpya.o(.text) for __aeabi_memcpy
    rb_fifo.o(i.rb_fifo_rd_blk) refers to memcpya.o(.text) for __aeabi_memcpy
    rb_fifo.o(i.rb_fifo_wr_D) refers to rb_fifo.o(i.rb_fifo_wr_blk) for rb_fifo_wr_blk
    rb_fifo.o(i.rb_fifo_wr_W) refers to rb_fifo.o(i.rb_fifo_wr_blk) for rb_fifo_wr_blk
    rb_fifo.o(i.rb_fifo_wr_blk) refers to memcpya.o(.text) for __aeabi_memcpy
    rb_fifo.o(i.rb_fifo_wr_blkA) refers to memcpya.o(.text) for __aeabi_memcpy
    rb_fifo.o(i.rb_fifo_wr_wait) refers to rb_fifo.o(i.rb_fifo_wr) for rb_fifo_wr
    rb_util.o(i.rb_IntToBIN) refers to rb_util.o(i.rb_IntToProc) for rb_IntToProc
    rb_util.o(i.rb_IntToHEX) refers to rb_util.o(i.rb_IntToProc) for rb_IntToProc
    rb_util.o(i.rb_IntToStr) refers to rb_util.o(i.rb_IntToProc) for rb_IntToProc
    stm32f4xx_adc.o(i.ADC_DeInit) refers to stm32f4xx_rcc.o(i.RCC_APB2PeriphResetCmd) for RCC_APB2PeriphResetCmd
    stm32f4xx_can.o(i.CAN_DeInit) refers to stm32f4xx_rcc.o(i.RCC_APB1PeriphResetCmd) for RCC_APB1PeriphResetCmd
    stm32f4xx_can.o(i.CAN_GetITStatus) refers to stm32f4xx_can.o(i.CheckITStatus) for CheckITStatus
    stm32f4xx_cryp.o(i.CRYP_DeInit) refers to stm32f4xx_rcc.o(i.RCC_AHB2PeriphResetCmd) for RCC_AHB2PeriphResetCmd
    stm32f4xx_cryp_aes.o(i.CRYP_AES_CBC) refers to stm32f4xx_cryp.o(i.CRYP_KeyStructInit) for CRYP_KeyStructInit
    stm32f4xx_cryp_aes.o(i.CRYP_AES_CBC) refers to stm32f4xx_cryp.o(i.CRYP_KeyInit) for CRYP_KeyInit
    stm32f4xx_cryp_aes.o(i.CRYP_AES_CBC) refers to stm32f4xx_cryp.o(i.CRYP_Init) for CRYP_Init
    stm32f4xx_cryp_aes.o(i.CRYP_AES_CBC) refers to stm32f4xx_cryp.o(i.CRYP_IVInit) for CRYP_IVInit
    stm32f4xx_cryp_aes.o(i.CRYP_AES_CBC) refers to stm32f4xx_cryp.o(i.CRYP_FIFOFlush) for CRYP_FIFOFlush
    stm32f4xx_cryp_aes.o(i.CRYP_AES_CBC) refers to stm32f4xx_cryp.o(i.CRYP_Cmd) for CRYP_Cmd
    stm32f4xx_cryp_aes.o(i.CRYP_AES_CBC) refers to stm32f4xx_cryp.o(i.CRYP_GetFlagStatus) for CRYP_GetFlagStatus
    stm32f4xx_cryp_aes.o(i.CRYP_AES_CBC) refers to stm32f4xx_cryp.o(i.CRYP_DataIn) for CRYP_DataIn
    stm32f4xx_cryp_aes.o(i.CRYP_AES_CBC) refers to stm32f4xx_cryp.o(i.CRYP_DataOut) for CRYP_DataOut
    stm32f4xx_cryp_aes.o(i.CRYP_AES_CTR) refers to stm32f4xx_cryp.o(i.CRYP_KeyStructInit) for CRYP_KeyStructInit
    stm32f4xx_cryp_aes.o(i.CRYP_AES_CTR) refers to stm32f4xx_cryp.o(i.CRYP_KeyInit) for CRYP_KeyInit
    stm32f4xx_cryp_aes.o(i.CRYP_AES_CTR) refers to stm32f4xx_cryp.o(i.CRYP_Init) for CRYP_Init
    stm32f4xx_cryp_aes.o(i.CRYP_AES_CTR) refers to stm32f4xx_cryp.o(i.CRYP_IVInit) for CRYP_IVInit
    stm32f4xx_cryp_aes.o(i.CRYP_AES_CTR) refers to stm32f4xx_cryp.o(i.CRYP_FIFOFlush) for CRYP_FIFOFlush
    stm32f4xx_cryp_aes.o(i.CRYP_AES_CTR) refers to stm32f4xx_cryp.o(i.CRYP_Cmd) for CRYP_Cmd
    stm32f4xx_cryp_aes.o(i.CRYP_AES_CTR) refers to stm32f4xx_cryp.o(i.CRYP_DataIn) for CRYP_DataIn
    stm32f4xx_cryp_aes.o(i.CRYP_AES_CTR) refers to stm32f4xx_cryp.o(i.CRYP_GetFlagStatus) for CRYP_GetFlagStatus
    stm32f4xx_cryp_aes.o(i.CRYP_AES_CTR) refers to stm32f4xx_cryp.o(i.CRYP_DataOut) for CRYP_DataOut
    stm32f4xx_cryp_aes.o(i.CRYP_AES_ECB) refers to stm32f4xx_cryp.o(i.CRYP_KeyStructInit) for CRYP_KeyStructInit
    stm32f4xx_cryp_aes.o(i.CRYP_AES_ECB) refers to stm32f4xx_cryp.o(i.CRYP_KeyInit) for CRYP_KeyInit
    stm32f4xx_cryp_aes.o(i.CRYP_AES_ECB) refers to stm32f4xx_cryp.o(i.CRYP_Init) for CRYP_Init
    stm32f4xx_cryp_aes.o(i.CRYP_AES_ECB) refers to stm32f4xx_cryp.o(i.CRYP_FIFOFlush) for CRYP_FIFOFlush
    stm32f4xx_cryp_aes.o(i.CRYP_AES_ECB) refers to stm32f4xx_cryp.o(i.CRYP_Cmd) for CRYP_Cmd
    stm32f4xx_cryp_aes.o(i.CRYP_AES_ECB) refers to stm32f4xx_cryp.o(i.CRYP_GetFlagStatus) for CRYP_GetFlagStatus
    stm32f4xx_cryp_aes.o(i.CRYP_AES_ECB) refers to stm32f4xx_cryp.o(i.CRYP_DataIn) for CRYP_DataIn
    stm32f4xx_cryp_aes.o(i.CRYP_AES_ECB) refers to stm32f4xx_cryp.o(i.CRYP_DataOut) for CRYP_DataOut
    stm32f4xx_cryp_des.o(i.CRYP_DES_CBC) refers to stm32f4xx_cryp.o(i.CRYP_KeyStructInit) for CRYP_KeyStructInit
    stm32f4xx_cryp_des.o(i.CRYP_DES_CBC) refers to stm32f4xx_cryp.o(i.CRYP_Init) for CRYP_Init
    stm32f4xx_cryp_des.o(i.CRYP_DES_CBC) refers to stm32f4xx_cryp.o(i.CRYP_KeyInit) for CRYP_KeyInit
    stm32f4xx_cryp_des.o(i.CRYP_DES_CBC) refers to stm32f4xx_cryp.o(i.CRYP_IVInit) for CRYP_IVInit
    stm32f4xx_cryp_des.o(i.CRYP_DES_CBC) refers to stm32f4xx_cryp.o(i.CRYP_FIFOFlush) for CRYP_FIFOFlush
    stm32f4xx_cryp_des.o(i.CRYP_DES_CBC) refers to stm32f4xx_cryp.o(i.CRYP_Cmd) for CRYP_Cmd
    stm32f4xx_cryp_des.o(i.CRYP_DES_CBC) refers to stm32f4xx_cryp.o(i.CRYP_DataIn) for CRYP_DataIn
    stm32f4xx_cryp_des.o(i.CRYP_DES_CBC) refers to stm32f4xx_cryp.o(i.CRYP_GetFlagStatus) for CRYP_GetFlagStatus
    stm32f4xx_cryp_des.o(i.CRYP_DES_CBC) refers to stm32f4xx_cryp.o(i.CRYP_DataOut) for CRYP_DataOut
    stm32f4xx_cryp_des.o(i.CRYP_DES_ECB) refers to stm32f4xx_cryp.o(i.CRYP_KeyStructInit) for CRYP_KeyStructInit
    stm32f4xx_cryp_des.o(i.CRYP_DES_ECB) refers to stm32f4xx_cryp.o(i.CRYP_Init) for CRYP_Init
    stm32f4xx_cryp_des.o(i.CRYP_DES_ECB) refers to stm32f4xx_cryp.o(i.CRYP_KeyInit) for CRYP_KeyInit
    stm32f4xx_cryp_des.o(i.CRYP_DES_ECB) refers to stm32f4xx_cryp.o(i.CRYP_FIFOFlush) for CRYP_FIFOFlush
    stm32f4xx_cryp_des.o(i.CRYP_DES_ECB) refers to stm32f4xx_cryp.o(i.CRYP_Cmd) for CRYP_Cmd
    stm32f4xx_cryp_des.o(i.CRYP_DES_ECB) refers to stm32f4xx_cryp.o(i.CRYP_DataIn) for CRYP_DataIn
    stm32f4xx_cryp_des.o(i.CRYP_DES_ECB) refers to stm32f4xx_cryp.o(i.CRYP_GetFlagStatus) for CRYP_GetFlagStatus
    stm32f4xx_cryp_des.o(i.CRYP_DES_ECB) refers to stm32f4xx_cryp.o(i.CRYP_DataOut) for CRYP_DataOut
    stm32f4xx_cryp_tdes.o(i.CRYP_TDES_CBC) refers to stm32f4xx_cryp.o(i.CRYP_KeyStructInit) for CRYP_KeyStructInit
    stm32f4xx_cryp_tdes.o(i.CRYP_TDES_CBC) refers to stm32f4xx_cryp.o(i.CRYP_Init) for CRYP_Init
    stm32f4xx_cryp_tdes.o(i.CRYP_TDES_CBC) refers to stm32f4xx_cryp.o(i.CRYP_KeyInit) for CRYP_KeyInit
    stm32f4xx_cryp_tdes.o(i.CRYP_TDES_CBC) refers to stm32f4xx_cryp.o(i.CRYP_IVInit) for CRYP_IVInit
    stm32f4xx_cryp_tdes.o(i.CRYP_TDES_CBC) refers to stm32f4xx_cryp.o(i.CRYP_FIFOFlush) for CRYP_FIFOFlush
    stm32f4xx_cryp_tdes.o(i.CRYP_TDES_CBC) refers to stm32f4xx_cryp.o(i.CRYP_Cmd) for CRYP_Cmd
    stm32f4xx_cryp_tdes.o(i.CRYP_TDES_CBC) refers to stm32f4xx_cryp.o(i.CRYP_DataIn) for CRYP_DataIn
    stm32f4xx_cryp_tdes.o(i.CRYP_TDES_CBC) refers to stm32f4xx_cryp.o(i.CRYP_GetFlagStatus) for CRYP_GetFlagStatus
    stm32f4xx_cryp_tdes.o(i.CRYP_TDES_CBC) refers to stm32f4xx_cryp.o(i.CRYP_DataOut) for CRYP_DataOut
    stm32f4xx_cryp_tdes.o(i.CRYP_TDES_ECB) refers to stm32f4xx_cryp.o(i.CRYP_KeyStructInit) for CRYP_KeyStructInit
    stm32f4xx_cryp_tdes.o(i.CRYP_TDES_ECB) refers to stm32f4xx_cryp.o(i.CRYP_Init) for CRYP_Init
    stm32f4xx_cryp_tdes.o(i.CRYP_TDES_ECB) refers to stm32f4xx_cryp.o(i.CRYP_KeyInit) for CRYP_KeyInit
    stm32f4xx_cryp_tdes.o(i.CRYP_TDES_ECB) refers to stm32f4xx_cryp.o(i.CRYP_FIFOFlush) for CRYP_FIFOFlush
    stm32f4xx_cryp_tdes.o(i.CRYP_TDES_ECB) refers to stm32f4xx_cryp.o(i.CRYP_Cmd) for CRYP_Cmd
    stm32f4xx_cryp_tdes.o(i.CRYP_TDES_ECB) refers to stm32f4xx_cryp.o(i.CRYP_DataIn) for CRYP_DataIn
    stm32f4xx_cryp_tdes.o(i.CRYP_TDES_ECB) refers to stm32f4xx_cryp.o(i.CRYP_GetFlagStatus) for CRYP_GetFlagStatus
    stm32f4xx_cryp_tdes.o(i.CRYP_TDES_ECB) refers to stm32f4xx_cryp.o(i.CRYP_DataOut) for CRYP_DataOut
    stm32f4xx_dac.o(i.DAC_DeInit) refers to stm32f4xx_rcc.o(i.RCC_APB1PeriphResetCmd) for RCC_APB1PeriphResetCmd
    stm32f4xx_flash.o(i.FLASH_EraseAllSectors) refers to stm32f4xx_flash.o(i.FLASH_WaitForLastOperation) for FLASH_WaitForLastOperation
    stm32f4xx_flash.o(i.FLASH_EraseSector) refers to stm32f4xx_flash.o(i.FLASH_WaitForLastOperation) for FLASH_WaitForLastOperation
    stm32f4xx_flash.o(i.FLASH_OB_Launch) refers to stm32f4xx_flash.o(i.FLASH_WaitForLastOperation) for FLASH_WaitForLastOperation
    stm32f4xx_flash.o(i.FLASH_OB_RDPConfig) refers to stm32f4xx_flash.o(i.FLASH_WaitForLastOperation) for FLASH_WaitForLastOperation
    stm32f4xx_flash.o(i.FLASH_OB_UserConfig) refers to stm32f4xx_flash.o(i.FLASH_WaitForLastOperation) for FLASH_WaitForLastOperation
    stm32f4xx_flash.o(i.FLASH_OB_WRPConfig) refers to stm32f4xx_flash.o(i.FLASH_WaitForLastOperation) for FLASH_WaitForLastOperation
    stm32f4xx_flash.o(i.FLASH_ProgramByte) refers to stm32f4xx_flash.o(i.FLASH_WaitForLastOperation) for FLASH_WaitForLastOperation
    stm32f4xx_flash.o(i.FLASH_ProgramDoubleWord) refers to stm32f4xx_flash.o(i.FLASH_WaitForLastOperation) for FLASH_WaitForLastOperation
    stm32f4xx_flash.o(i.FLASH_ProgramHalfWord) refers to stm32f4xx_flash.o(i.FLASH_WaitForLastOperation) for FLASH_WaitForLastOperation
    stm32f4xx_flash.o(i.FLASH_ProgramWord) refers to stm32f4xx_flash.o(i.FLASH_WaitForLastOperation) for FLASH_WaitForLastOperation
    stm32f4xx_flash.o(i.FLASH_WaitForLastOperation) refers to stm32f4xx_flash.o(i.FLASH_GetStatus) for FLASH_GetStatus
    stm32f4xx_gpio.o(i.GPIO_DeInit) refers to stm32f4xx_rcc.o(i.RCC_AHB1PeriphResetCmd) for RCC_AHB1PeriphResetCmd
    stm32f4xx_hash.o(i.HASH_DeInit) refers to stm32f4xx_rcc.o(i.RCC_AHB2PeriphResetCmd) for RCC_AHB2PeriphResetCmd
    stm32f4xx_hash_md5.o(i.HASH_MD5) refers to stm32f4xx_hash.o(i.HASH_DeInit) for HASH_DeInit
    stm32f4xx_hash_md5.o(i.HASH_MD5) refers to stm32f4xx_hash.o(i.HASH_Init) for HASH_Init
    stm32f4xx_hash_md5.o(i.HASH_MD5) refers to stm32f4xx_hash.o(i.HASH_SetLastWordValidBitsNbr) for HASH_SetLastWordValidBitsNbr
    stm32f4xx_hash_md5.o(i.HASH_MD5) refers to stm32f4xx_hash.o(i.HASH_DataIn) for HASH_DataIn
    stm32f4xx_hash_md5.o(i.HASH_MD5) refers to stm32f4xx_hash.o(i.HASH_StartDigest) for HASH_StartDigest
    stm32f4xx_hash_md5.o(i.HASH_MD5) refers to stm32f4xx_hash.o(i.HASH_GetFlagStatus) for HASH_GetFlagStatus
    stm32f4xx_hash_md5.o(i.HASH_MD5) refers to stm32f4xx_hash.o(i.HASH_GetDigest) for HASH_GetDigest
    stm32f4xx_hash_md5.o(i.HMAC_MD5) refers to stm32f4xx_hash.o(i.HASH_DeInit) for HASH_DeInit
    stm32f4xx_hash_md5.o(i.HMAC_MD5) refers to stm32f4xx_hash.o(i.HASH_Init) for HASH_Init
    stm32f4xx_hash_md5.o(i.HMAC_MD5) refers to stm32f4xx_hash.o(i.HASH_SetLastWordValidBitsNbr) for HASH_SetLastWordValidBitsNbr
    stm32f4xx_hash_md5.o(i.HMAC_MD5) refers to stm32f4xx_hash.o(i.HASH_DataIn) for HASH_DataIn
    stm32f4xx_hash_md5.o(i.HMAC_MD5) refers to stm32f4xx_hash.o(i.HASH_StartDigest) for HASH_StartDigest
    stm32f4xx_hash_md5.o(i.HMAC_MD5) refers to stm32f4xx_hash.o(i.HASH_GetFlagStatus) for HASH_GetFlagStatus
    stm32f4xx_hash_md5.o(i.HMAC_MD5) refers to stm32f4xx_hash.o(i.HASH_GetDigest) for HASH_GetDigest
    stm32f4xx_hash_sha1.o(i.HASH_SHA1) refers to stm32f4xx_hash.o(i.HASH_DeInit) for HASH_DeInit
    stm32f4xx_hash_sha1.o(i.HASH_SHA1) refers to stm32f4xx_hash.o(i.HASH_Init) for HASH_Init
    stm32f4xx_hash_sha1.o(i.HASH_SHA1) refers to stm32f4xx_hash.o(i.HASH_SetLastWordValidBitsNbr) for HASH_SetLastWordValidBitsNbr
    stm32f4xx_hash_sha1.o(i.HASH_SHA1) refers to stm32f4xx_hash.o(i.HASH_DataIn) for HASH_DataIn
    stm32f4xx_hash_sha1.o(i.HASH_SHA1) refers to stm32f4xx_hash.o(i.HASH_StartDigest) for HASH_StartDigest
    stm32f4xx_hash_sha1.o(i.HASH_SHA1) refers to stm32f4xx_hash.o(i.HASH_GetFlagStatus) for HASH_GetFlagStatus
    stm32f4xx_hash_sha1.o(i.HASH_SHA1) refers to stm32f4xx_hash.o(i.HASH_GetDigest) for HASH_GetDigest
    stm32f4xx_hash_sha1.o(i.HMAC_SHA1) refers to stm32f4xx_hash.o(i.HASH_DeInit) for HASH_DeInit
    stm32f4xx_hash_sha1.o(i.HMAC_SHA1) refers to stm32f4xx_hash.o(i.HASH_Init) for HASH_Init
    stm32f4xx_hash_sha1.o(i.HMAC_SHA1) refers to stm32f4xx_hash.o(i.HASH_SetLastWordValidBitsNbr) for HASH_SetLastWordValidBitsNbr
    stm32f4xx_hash_sha1.o(i.HMAC_SHA1) refers to stm32f4xx_hash.o(i.HASH_DataIn) for HASH_DataIn
    stm32f4xx_hash_sha1.o(i.HMAC_SHA1) refers to stm32f4xx_hash.o(i.HASH_StartDigest) for HASH_StartDigest
    stm32f4xx_hash_sha1.o(i.HMAC_SHA1) refers to stm32f4xx_hash.o(i.HASH_GetFlagStatus) for HASH_GetFlagStatus
    stm32f4xx_hash_sha1.o(i.HMAC_SHA1) refers to stm32f4xx_hash.o(i.HASH_GetDigest) for HASH_GetDigest
    stm32f4xx_i2c.o(i.I2C_DeInit) refers to stm32f4xx_rcc.o(i.RCC_APB1PeriphResetCmd) for RCC_APB1PeriphResetCmd
    stm32f4xx_i2c.o(i.I2C_Init) refers to stm32f4xx_rcc.o(i.RCC_GetClocksFreq) for RCC_GetClocksFreq
    stm32f4xx_pwr.o(i.PWR_DeInit) refers to stm32f4xx_rcc.o(i.RCC_APB1PeriphResetCmd) for RCC_APB1PeriphResetCmd
    stm32f4xx_rcc.o(i.RCC_GetClocksFreq) refers to stm32f4xx_rcc.o(.data) for .data
    stm32f4xx_rcc.o(i.RCC_WaitForHSEStartUp) refers to stm32f4xx_rcc.o(i.RCC_GetFlagStatus) for RCC_GetFlagStatus
    stm32f4xx_rng.o(i.RNG_DeInit) refers to stm32f4xx_rcc.o(i.RCC_AHB2PeriphResetCmd) for RCC_AHB2PeriphResetCmd
    stm32f4xx_rtc.o(i.RTC_CoarseCalibCmd) refers to stm32f4xx_rtc.o(i.RTC_EnterInitMode) for RTC_EnterInitMode
    stm32f4xx_rtc.o(i.RTC_CoarseCalibCmd) refers to stm32f4xx_rtc.o(i.RTC_ExitInitMode) for RTC_ExitInitMode
    stm32f4xx_rtc.o(i.RTC_CoarseCalibConfig) refers to stm32f4xx_rtc.o(i.RTC_EnterInitMode) for RTC_EnterInitMode
    stm32f4xx_rtc.o(i.RTC_CoarseCalibConfig) refers to stm32f4xx_rtc.o(i.RTC_ExitInitMode) for RTC_ExitInitMode
    stm32f4xx_rtc.o(i.RTC_DeInit) refers to stm32f4xx_rtc.o(i.RTC_EnterInitMode) for RTC_EnterInitMode
    stm32f4xx_rtc.o(i.RTC_DeInit) refers to stm32f4xx_rtc.o(i.RTC_WaitForSynchro) for RTC_WaitForSynchro
    stm32f4xx_rtc.o(i.RTC_GetAlarm) refers to stm32f4xx_rtc.o(i.RTC_Bcd2ToByte) for RTC_Bcd2ToByte
    stm32f4xx_rtc.o(i.RTC_GetDate) refers to stm32f4xx_rtc.o(i.RTC_Bcd2ToByte) for RTC_Bcd2ToByte
    stm32f4xx_rtc.o(i.RTC_GetTime) refers to stm32f4xx_rtc.o(i.RTC_Bcd2ToByte) for RTC_Bcd2ToByte
    stm32f4xx_rtc.o(i.RTC_GetTimeStamp) refers to stm32f4xx_rtc.o(i.RTC_Bcd2ToByte) for RTC_Bcd2ToByte
    stm32f4xx_rtc.o(i.RTC_Init) refers to stm32f4xx_rtc.o(i.RTC_EnterInitMode) for RTC_EnterInitMode
    stm32f4xx_rtc.o(i.RTC_Init) refers to stm32f4xx_rtc.o(i.RTC_ExitInitMode) for RTC_ExitInitMode
    stm32f4xx_rtc.o(i.RTC_RefClockCmd) refers to stm32f4xx_rtc.o(i.RTC_EnterInitMode) for RTC_EnterInitMode
    stm32f4xx_rtc.o(i.RTC_RefClockCmd) refers to stm32f4xx_rtc.o(i.RTC_ExitInitMode) for RTC_ExitInitMode
    stm32f4xx_rtc.o(i.RTC_SetAlarm) refers to stm32f4xx_rtc.o(i.RTC_Bcd2ToByte) for RTC_Bcd2ToByte
    stm32f4xx_rtc.o(i.RTC_SetAlarm) refers to stm32f4xx_rtc.o(i.RTC_ByteToBcd2) for RTC_ByteToBcd2
    stm32f4xx_rtc.o(i.RTC_SetDate) refers to stm32f4xx_rtc.o(i.RTC_Bcd2ToByte) for RTC_Bcd2ToByte
    stm32f4xx_rtc.o(i.RTC_SetDate) refers to stm32f4xx_rtc.o(i.RTC_EnterInitMode) for RTC_EnterInitMode
    stm32f4xx_rtc.o(i.RTC_SetDate) refers to stm32f4xx_rtc.o(i.RTC_ExitInitMode) for RTC_ExitInitMode
    stm32f4xx_rtc.o(i.RTC_SetDate) refers to stm32f4xx_rtc.o(i.RTC_WaitForSynchro) for RTC_WaitForSynchro
    stm32f4xx_rtc.o(i.RTC_SetDate) refers to stm32f4xx_rtc.o(i.RTC_ByteToBcd2) for RTC_ByteToBcd2
    stm32f4xx_rtc.o(i.RTC_SetTime) refers to stm32f4xx_rtc.o(i.RTC_Bcd2ToByte) for RTC_Bcd2ToByte
    stm32f4xx_rtc.o(i.RTC_SetTime) refers to stm32f4xx_rtc.o(i.RTC_ByteToBcd2) for RTC_ByteToBcd2
    stm32f4xx_rtc.o(i.RTC_SetTime) refers to stm32f4xx_rtc.o(i.RTC_EnterInitMode) for RTC_EnterInitMode
    stm32f4xx_rtc.o(i.RTC_SetTime) refers to stm32f4xx_rtc.o(i.RTC_ExitInitMode) for RTC_ExitInitMode
    stm32f4xx_rtc.o(i.RTC_SetTime) refers to stm32f4xx_rtc.o(i.RTC_WaitForSynchro) for RTC_WaitForSynchro
    stm32f4xx_rtc.o(i.RTC_SynchroShiftConfig) refers to stm32f4xx_rtc.o(i.RTC_WaitForSynchro) for RTC_WaitForSynchro
    stm32f4xx_sdio.o(i.SDIO_DeInit) refers to stm32f4xx_rcc.o(i.RCC_APB2PeriphResetCmd) for RCC_APB2PeriphResetCmd
    stm32f4xx_spi.o(i.SPI_I2S_DeInit) refers to stm32f4xx_rcc.o(i.RCC_APB2PeriphResetCmd) for RCC_APB2PeriphResetCmd
    stm32f4xx_spi.o(i.SPI_I2S_DeInit) refers to stm32f4xx_rcc.o(i.RCC_APB1PeriphResetCmd) for RCC_APB1PeriphResetCmd
    stm32f4xx_syscfg.o(i.SYSCFG_DeInit) refers to stm32f4xx_rcc.o(i.RCC_APB2PeriphResetCmd) for RCC_APB2PeriphResetCmd
    stm32f4xx_tim.o(i.TIM_DeInit) refers to stm32f4xx_rcc.o(i.RCC_APB2PeriphResetCmd) for RCC_APB2PeriphResetCmd
    stm32f4xx_tim.o(i.TIM_DeInit) refers to stm32f4xx_rcc.o(i.RCC_APB1PeriphResetCmd) for RCC_APB1PeriphResetCmd
    stm32f4xx_tim.o(i.TIM_ETRClockMode1Config) refers to stm32f4xx_tim.o(i.TIM_ETRConfig) for TIM_ETRConfig
    stm32f4xx_tim.o(i.TIM_ETRClockMode2Config) refers to stm32f4xx_tim.o(i.TIM_ETRConfig) for TIM_ETRConfig
    stm32f4xx_tim.o(i.TIM_ICInit) refers to stm32f4xx_tim.o(i.TIM_SetIC4Prescaler) for TIM_SetIC4Prescaler
    stm32f4xx_tim.o(i.TIM_ICInit) refers to stm32f4xx_tim.o(i.TI1_Config) for TI1_Config
    stm32f4xx_tim.o(i.TIM_ICInit) refers to stm32f4xx_tim.o(i.TIM_SetIC1Prescaler) for TIM_SetIC1Prescaler
    stm32f4xx_tim.o(i.TIM_ICInit) refers to stm32f4xx_tim.o(i.TI2_Config) for TI2_Config
    stm32f4xx_tim.o(i.TIM_ICInit) refers to stm32f4xx_tim.o(i.TIM_SetIC2Prescaler) for TIM_SetIC2Prescaler
    stm32f4xx_tim.o(i.TIM_ICInit) refers to stm32f4xx_tim.o(i.TIM_SetIC3Prescaler) for TIM_SetIC3Prescaler
    stm32f4xx_tim.o(i.TIM_ITRxExternalClockConfig) refers to stm32f4xx_tim.o(i.TIM_SelectInputTrigger) for TIM_SelectInputTrigger
    stm32f4xx_tim.o(i.TIM_PWMIConfig) refers to stm32f4xx_tim.o(i.TI2_Config) for TI2_Config
    stm32f4xx_tim.o(i.TIM_PWMIConfig) refers to stm32f4xx_tim.o(i.TIM_SetIC2Prescaler) for TIM_SetIC2Prescaler
    stm32f4xx_tim.o(i.TIM_PWMIConfig) refers to stm32f4xx_tim.o(i.TI1_Config) for TI1_Config
    stm32f4xx_tim.o(i.TIM_PWMIConfig) refers to stm32f4xx_tim.o(i.TIM_SetIC1Prescaler) for TIM_SetIC1Prescaler
    stm32f4xx_tim.o(i.TIM_TIxExternalClockConfig) refers to stm32f4xx_tim.o(i.TI1_Config) for TI1_Config
    stm32f4xx_tim.o(i.TIM_TIxExternalClockConfig) refers to stm32f4xx_tim.o(i.TIM_SelectInputTrigger) for TIM_SelectInputTrigger
    stm32f4xx_tim.o(i.TIM_TIxExternalClockConfig) refers to stm32f4xx_tim.o(i.TI2_Config) for TI2_Config
    stm32f4xx_usart.o(i.USART_DeInit) refers to stm32f4xx_rcc.o(i.RCC_APB2PeriphResetCmd) for RCC_APB2PeriphResetCmd
    stm32f4xx_usart.o(i.USART_DeInit) refers to stm32f4xx_rcc.o(i.RCC_APB1PeriphResetCmd) for RCC_APB1PeriphResetCmd
    stm32f4xx_usart.o(i.USART_Init) refers to stm32f4xx_rcc.o(i.RCC_GetClocksFreq) for RCC_GetClocksFreq
    stm32f4xx_wwdg.o(i.WWDG_DeInit) refers to stm32f4xx_rcc.o(i.RCC_APB1PeriphResetCmd) for RCC_APB1PeriphResetCmd
    hardware.o(i.Init) refers to hardware.o(i.RCC_Configuration) for RCC_Configuration
    hardware.o(i.Init) refers to stm32f4xx_rcc.o(i.RCC_GetClocksFreq) for RCC_GetClocksFreq
    hardware.o(i.Init) refers to hardware.o(i.SelectInitGPIO) for SelectInitGPIO
    hardware.o(i.Init) refers to hdtimers.o(.bss) for MPU_ClocksStatus
    hardware.o(i.Init) refers to hdtimers.o(.data) for PCLK1_NOP
    hardware.o(i.RCC_Configuration) refers to stm32f4xx_rcc.o(i.RCC_DeInit) for RCC_DeInit
    hardware.o(i.RCC_Configuration) refers to stm32f4xx_rcc.o(i.RCC_HSEConfig) for RCC_HSEConfig
    hardware.o(i.RCC_Configuration) refers to stm32f4xx_rcc.o(i.RCC_WaitForHSEStartUp) for RCC_WaitForHSEStartUp
    hardware.o(i.RCC_Configuration) refers to stm32f4xx_rcc.o(i.RCC_PLLConfig) for RCC_PLLConfig
    hardware.o(i.RCC_Configuration) refers to stm32f4xx_rcc.o(i.RCC_PLLCmd) for RCC_PLLCmd
    hardware.o(i.RCC_Configuration) refers to stm32f4xx_rcc.o(i.RCC_GetFlagStatus) for RCC_GetFlagStatus
    hardware.o(i.RCC_Configuration) refers to stm32f4xx_flash.o(i.FLASH_SetLatency) for FLASH_SetLatency
    hardware.o(i.RCC_Configuration) refers to stm32f4xx_flash.o(i.FLASH_PrefetchBufferCmd) for FLASH_PrefetchBufferCmd
    hardware.o(i.RCC_Configuration) refers to stm32f4xx_flash.o(i.FLASH_InstructionCacheCmd) for FLASH_InstructionCacheCmd
    hardware.o(i.RCC_Configuration) refers to stm32f4xx_flash.o(i.FLASH_DataCacheCmd) for FLASH_DataCacheCmd
    hardware.o(i.RCC_Configuration) refers to stm32f4xx_rcc.o(i.RCC_HCLKConfig) for RCC_HCLKConfig
    hardware.o(i.RCC_Configuration) refers to stm32f4xx_rcc.o(i.RCC_PCLK1Config) for RCC_PCLK1Config
    hardware.o(i.RCC_Configuration) refers to stm32f4xx_rcc.o(i.RCC_PCLK2Config) for RCC_PCLK2Config
    hardware.o(i.RCC_Configuration) refers to stm32f4xx_rcc.o(i.RCC_SYSCLKConfig) for RCC_SYSCLKConfig
    hardware.o(i.SelectInitGPIO) refers to hdports.o(i.hdGPIO_Setup) for hdGPIO_Setup
    hardware.o(i.SelectInitGPIO) refers to hardware.o(i.SetupSPI) for SetupSPI
    hardware.o(i.SelectInitGPIO) refers to hdtimers.o(i.DelayMS) for DelayMS
    hardware.o(i.SelectInitGPIO) refers to hardware.o(.data) for isRbousCFG
    hardware.o(i.SetupSPI) refers to stm32f4xx_rcc.o(i.RCC_APB1PeriphClockCmd) for RCC_APB1PeriphClockCmd
    hardware.o(i.SetupSPI) refers to stm32f4xx_rcc.o(i.RCC_AHB1PeriphClockCmd) for RCC_AHB1PeriphClockCmd
    hardware.o(i.SetupSPI) refers to hdports.o(i.hdGPIO_Setup) for hdGPIO_Setup
    hardware.o(i.SetupSPI) refers to stm32f4xx_gpio.o(i.GPIO_PinAFConfig) for GPIO_PinAFConfig
    hardware.o(i.SetupSPI) refers to stm32f4xx_dma.o(i.DMA_Cmd) for DMA_Cmd
    hardware.o(i.SetupSPI) refers to stm32f4xx_dma.o(i.DMA_Init) for DMA_Init
    hardware.o(i.SetupSPI) refers to stm32f4xx_dma.o(i.DMA_ClearFlag) for DMA_ClearFlag
    hardware.o(i.SetupSPI) refers to stm32f4xx_spi.o(i.SPI_I2S_DeInit) for SPI_I2S_DeInit
    hardware.o(i.SetupSPI) refers to stm32f4xx_spi.o(i.SPI_Init) for SPI_Init
    hardware.o(i.SetupSPI) refers to stm32f4xx_spi.o(i.SPI_SSOutputCmd) for SPI_SSOutputCmd
    hardware.o(i.SetupSPI) refers to stm32f4xx_spi.o(i.SPI_NSSInternalSoftwareConfig) for SPI_NSSInternalSoftwareConfig
    hardware.o(i.SetupSPI) refers to stm32f4xx_spi.o(i.SPI_Cmd) for SPI_Cmd
    hardware.o(i.SetupSPI) refers to stm32f4xx_spi.o(i.SPI_I2S_DMACmd) for SPI_I2S_DMACmd
    hardware.o(i.SetupSPI) refers to stm32f4xx_dma.o(i.DMA_ITConfig) for DMA_ITConfig
    hardware.o(i.SetupSPI) refers to hardware.o(.data) for SPI3DMAbufferTx
    hardware.o(i.SystemInit) refers to hardware.o(i.RCC_Configuration) for RCC_Configuration
    interface.o(i.Echo_RS_Disable) refers to interface.o(.data) for .data
    interface.o(i.Echo_RS_Enable) refers to interface.o(.data) for .data
    interface.o(i.Echo_RS_isEnabled) refers to interface.o(.data) for .data
    interface.o(i.GPIO_RS_SetMode) refers to interface.o(i.USART1_GPIO) for USART1_GPIO
    interface.o(i.Read_RS_Buf) refers to rb_fifo.o(i.rb_fifo_rd_blk) for rb_fifo_rd_blk
    interface.o(i.Read_RS_Buf) refers to interface.o(.data) for .data
    interface.o(i.Read_RS_Byte) refers to rb_fifo.o(i.rb_fifo_size) for rb_fifo_size
    interface.o(i.Read_RS_Byte) refers to rb_fifo.o(i.rb_fifo_rd) for rb_fifo_rd
    interface.o(i.Read_RS_Byte) refers to interface.o(.data) for .data
    interface.o(i.Read_RS_Flush) refers to rb_fifo.o(i.rb_fifo_clear) for rb_fifo_clear
    interface.o(i.Read_RS_Flush) refers to interface.o(.data) for .data
    interface.o(i.Read_RS_Size) refers to rb_fifo.o(i.rb_fifo_size) for rb_fifo_size
    interface.o(i.Read_RS_Size) refers to interface.o(.data) for .data
    interface.o(i.Send_RS_B) refers to rb_fifo.o(i.rb_fifo_wr) for rb_fifo_wr
    interface.o(i.Send_RS_B) refers to stm32f4xx_usart.o(i.USART_ITConfig) for USART_ITConfig
    interface.o(i.Send_RS_B) refers to interface.o(.data) for .data
    interface.o(i.Send_RS_BLK) refers to rb_fifo.o(i.rb_fifo_free) for rb_fifo_free
    interface.o(i.Send_RS_BLK) refers to rb_fifo.o(i.rb_fifo_wr_blk) for rb_fifo_wr_blk
    interface.o(i.Send_RS_BLK) refers to stm32f4xx_usart.o(i.USART_ITConfig) for USART_ITConfig
    interface.o(i.Send_RS_BLK) refers to interface.o(.data) for .data
    interface.o(i.Send_RS_Buf) refers to rb_fifo.o(i.rb_fifo_free) for rb_fifo_free
    interface.o(i.Send_RS_Buf) refers to rb_fifo.o(i.rb_fifo_wr_blk) for rb_fifo_wr_blk
    interface.o(i.Send_RS_Buf) refers to stm32f4xx_usart.o(i.USART_ITConfig) for USART_ITConfig
    interface.o(i.Send_RS_Buf) refers to interface.o(i.Send_RS_Hold) for Send_RS_Hold
    interface.o(i.Send_RS_Buf) refers to interface.o(i.USART1_GPIO) for USART1_GPIO
    interface.o(i.Send_RS_Buf) refers to rb_fifo.o(i.rb_fifo_size) for rb_fifo_size
    interface.o(i.Send_RS_Buf) refers to stm32f4xx_usart.o(i.USART_GetFlagStatus) for USART_GetFlagStatus
    interface.o(i.Send_RS_Buf) refers to interface.o(.data) for .data
    interface.o(i.Send_RS_Byte) refers to interface.o(i.Send_RS_Buf) for Send_RS_Buf
    interface.o(i.Send_RS_D) refers to interface.o(i.Send_RS_Buf) for Send_RS_Buf
    interface.o(i.Send_RS_DEC) refers to rb_util.o(i.rb_IntToProc) for rb_IntToProc
    interface.o(i.Send_RS_DEC) refers to interface.o(i.Send_RS_Byte) for Send_RS_Byte
    interface.o(i.Send_RS_End) refers to interface.o(i.Send_RS_Hold) for Send_RS_Hold
    interface.o(i.Send_RS_End) refers to interface.o(i.USART1_GPIO) for USART1_GPIO
    interface.o(i.Send_RS_FREE) refers to rb_fifo.o(i.rb_fifo_free) for rb_fifo_free
    interface.o(i.Send_RS_FREE) refers to interface.o(.data) for .data
    interface.o(i.Send_RS_FREEBusy) refers to rb_fifo.o(i.rb_fifo_free) for rb_fifo_free
    interface.o(i.Send_RS_FREEBusy) refers to rb_fifo.o(i.rb_fifo_size) for rb_fifo_size
    interface.o(i.Send_RS_FREEBusy) refers to stm32f4xx_usart.o(i.USART_GetFlagStatus) for USART_GetFlagStatus
    interface.o(i.Send_RS_FREEBusy) refers to interface.o(.data) for .data
    interface.o(i.Send_RS_HEX) refers to rb_util.o(i.rb_IntToProc) for rb_IntToProc
    interface.o(i.Send_RS_HEX) refers to interface.o(i.Send_RS_Byte) for Send_RS_Byte
    interface.o(i.Send_RS_Hold) refers to rb_fifo.o(i.rb_fifo_size) for rb_fifo_size
    interface.o(i.Send_RS_Hold) refers to stm32f4xx_usart.o(i.USART_GetFlagStatus) for USART_GetFlagStatus
    interface.o(i.Send_RS_Hold) refers to interface.o(i.USART1_GPIO) for USART1_GPIO
    interface.o(i.Send_RS_Hold) refers to interface.o(i.Send_RS_Buf) for Send_RS_Buf
    interface.o(i.Send_RS_Hold) refers to hdtimers.o(i.DelayMCS) for DelayMCS
    interface.o(i.Send_RS_Hold) refers to interface.o(.data) for .data
    interface.o(i.Send_RS_Q) refers to interface.o(i.Send_RS_Buf) for Send_RS_Buf
    interface.o(i.Send_RS_Start) refers to rb_fifo.o(i.rb_fifo_size) for rb_fifo_size
    interface.o(i.Send_RS_Start) refers to stm32f4xx_usart.o(i.USART_GetFlagStatus) for USART_GetFlagStatus
    interface.o(i.Send_RS_Start) refers to interface.o(i.USART1_GPIO) for USART1_GPIO
    interface.o(i.Send_RS_Start) refers to interface.o(i.Send_RS_Hold) for Send_RS_Hold
    interface.o(i.Send_RS_Start) refers to interface.o(.data) for .data
    interface.o(i.Send_RS_String) refers to strlen.o(.text) for strlen
    interface.o(i.Send_RS_String) refers to interface.o(i.Send_RS_Buf) for Send_RS_Buf
    interface.o(i.Send_RS_W) refers to interface.o(i.Send_RS_Buf) for Send_RS_Buf
    interface.o(i.Send_RS_WaitFlush) refers to rb_fifo.o(i.rb_fifo_size) for rb_fifo_size
    interface.o(i.Send_RS_WaitFlush) refers to stm32f4xx_usart.o(i.USART_GetFlagStatus) for USART_GetFlagStatus
    interface.o(i.Send_RS_WaitFlush) refers to interface.o(.data) for .data
    interface.o(i.Send_RS_isBusy) refers to rb_fifo.o(i.rb_fifo_size) for rb_fifo_size
    interface.o(i.Send_RS_isBusy) refers to stm32f4xx_usart.o(i.USART_GetFlagStatus) for USART_GetFlagStatus
    interface.o(i.Send_RS_isBusy) refers to interface.o(.data) for .data
    interface.o(i.USART1_GPIO) refers to stm32f4xx_rcc.o(i.RCC_APB2PeriphClockCmd) for RCC_APB2PeriphClockCmd
    interface.o(i.USART1_GPIO) refers to stm32f4xx_gpio.o(i.GPIO_PinAFConfig) for GPIO_PinAFConfig
    interface.o(i.USART1_GPIO) refers to hdports.o(i.hdGPIO_Setup) for hdGPIO_Setup
    interface.o(i.USART1_IRQHandler) refers to stm32f4xx_usart.o(i.USART_GetITStatus) for USART_GetITStatus
    interface.o(i.USART1_IRQHandler) refers to stm32f4xx_usart.o(i.USART_ReceiveData) for USART_ReceiveData
    interface.o(i.USART1_IRQHandler) refers to rb_fifo.o(i.rb_fifo_free) for rb_fifo_free
    interface.o(i.USART1_IRQHandler) refers to rb_fifo.o(i.rb_fifo_wr_blk) for rb_fifo_wr_blk
    interface.o(i.USART1_IRQHandler) refers to stm32f4xx_usart.o(i.USART_ITConfig) for USART_ITConfig
    interface.o(i.USART1_IRQHandler) refers to rb_fifo.o(i.rb_fifo_size) for rb_fifo_size
    interface.o(i.USART1_IRQHandler) refers to rb_fifo.o(i.rb_fifo_rd) for rb_fifo_rd
    interface.o(i.USART1_IRQHandler) refers to stm32f4xx_usart.o(i.USART_SendData) for USART_SendData
    interface.o(i.USART1_IRQHandler) refers to interface.o(.data) for .data
    interface.o(i.USART1uIntSet) refers to stm32f4xx_usart.o(i.USART_ITConfig) for USART_ITConfig
    interface.o(i.Uart_RS_Init) refers to interface.o(i.USART1_GPIO) for USART1_GPIO
    interface.o(i.Uart_RS_Init) refers to stm32f4xx_usart.o(i.USART_Cmd) for USART_Cmd
    interface.o(i.Uart_RS_Init) refers to rb_fifo.o(i.rb_fifo_size) for rb_fifo_size
    interface.o(i.Uart_RS_Init) refers to rb_fifo.o(i.rb_fifo_flush) for rb_fifo_flush
    interface.o(i.Uart_RS_Init) refers to stm32f4xx_usart.o(i.USART_Init) for USART_Init
    interface.o(i.Uart_RS_Init) refers to misc.o(i.NVIC_Init) for NVIC_Init
    interface.o(i.Uart_RS_Init) refers to stm32f4xx_usart.o(i.USART_ITConfig) for USART_ITConfig
    interface.o(i.Uart_RS_Init) refers to interface.o(.data) for .data
    interface.o(.data) refers to interface.o(.bss) for uart_RS_fifo_in_buf
    interface.o(.data) refers to interface.o(.bss) for uart_RS_fifo_out_buf
    hdinterrupt.o(i.hdIntSetVector) refers to hdinterrupt.o(ccmram) for ccmram
    hdinterrupt.o(i.hdIntSwitchInterruptToRAM) refers to startup_stm32f40_41xxx.o(RESET) for __Vectors
    hdinterrupt.o(i.hdIntSwitchInterruptToRAM) refers to hdinterrupt.o(ccmram) for ccmram
    hdports.o(i.hdGPIO_Active) refers to stm32f4xx_rcc.o(i.RCC_AHB1PeriphClockCmd) for RCC_AHB1PeriphClockCmd
    hdports.o(i.hdGPIO_Setup) refers to stm32f4xx_rcc.o(i.RCC_AHB1PeriphClockCmd) for RCC_AHB1PeriphClockCmd
    hdtimers.o(i.DelayMCS) refers to hdtimers.o(i.TimerCounterUpdate) for TimerCounterUpdate
    hdtimers.o(i.DelayMCS) refers to hdtimers.o(i.isTimerCompareOverflowX) for isTimerCompareOverflowX
    hdtimers.o(i.DelayMCS) refers to hdtimers.o(.bss) for .bss
    hdtimers.o(i.DelayMCS) refers to hdtimers.o(.data) for .data
    hdtimers.o(i.DelayMS) refers to hdtimers.o(i.TimerCounterUpdate) for TimerCounterUpdate
    hdtimers.o(i.DelayMS) refers to hdtimers.o(i.isTimerCompareOverflowX) for isTimerCompareOverflowX
    hdtimers.o(i.DelayMS) refers to hdtimers.o(.bss) for .bss
    hdtimers.o(i.DelayMS) refers to hdtimers.o(.data) for .data
    hdtimers.o(i.DelayNOP_CLK) refers to hdtimers.o(.data) for .data
    hdtimers.o(i.Sleep) refers to hdtimers.o(i.Timer_1ms_CounterUpdate) for Timer_1ms_CounterUpdate
    hdtimers.o(i.Sleep) refers to hdtimers.o(i.isTimerCompareOverflowX) for isTimerCompareOverflowX
    hdtimers.o(i.TimerCounterUpdate) refers to hdtimers.o(.bss) for .bss
    hdtimers.o(i.TimerCounterUpdate) refers to hdtimers.o(.data) for .data
    hdtimers.o(i.Timer_1mcs_CounterUpdate) refers to hdtimers.o(.bss) for .bss
    hdtimers.o(i.Timer_1mcs_CounterUpdate) refers to hdtimers.o(.data) for .data
    hdtimers.o(i.Timer_1ms_CounterUpdate) refers to hdtimers.o(.bss) for .bss
    hdtimers.o(i.Timer_1ms_CounterUpdate) refers to hdtimers.o(.data) for .data
    hdtimers.o(i.Timer_CounterProc) refers to hdtimers.o(i.TimerCounterUpdate) for TimerCounterUpdate
    hdtimers.o(i.WaitMCS_Check) refers to hdtimers.o(i.Timer_1mcs_CounterUpdate) for Timer_1mcs_CounterUpdate
    hdtimers.o(i.WaitMCS_Check) refers to hdtimers.o(i.isTimerCompareOverflowX) for isTimerCompareOverflowX
    hdtimers.o(i.WaitMCS_CheckContinue) refers to hdtimers.o(i.Timer_1mcs_CounterUpdate) for Timer_1mcs_CounterUpdate
    hdtimers.o(i.WaitMCS_Delta) refers to hdtimers.o(i.Timer_1mcs_CounterUpdate) for Timer_1mcs_CounterUpdate
    hdtimers.o(i.WaitMCS_Start) refers to hdtimers.o(i.Timer_1mcs_CounterUpdate) for Timer_1mcs_CounterUpdate
    hdtimers.o(i.WaitMCS_Wait) refers to hdtimers.o(i.Timer_1mcs_CounterUpdate) for Timer_1mcs_CounterUpdate
    hdtimers.o(i.WaitMCS_Wait) refers to hdtimers.o(i.isTimerCompareOverflowX) for isTimerCompareOverflowX
    hdtimers.o(i.WaitMS_Check) refers to hdtimers.o(i.Timer_1ms_CounterUpdate) for Timer_1ms_CounterUpdate
    hdtimers.o(i.WaitMS_Check) refers to hdtimers.o(i.isTimerCompareOverflowX) for isTimerCompareOverflowX
    hdtimers.o(i.WaitMS_CheckContinue) refers to hdtimers.o(i.Timer_1ms_CounterUpdate) for Timer_1ms_CounterUpdate
    hdtimers.o(i.WaitMS_Delta) refers to hdtimers.o(i.Timer_1ms_CounterUpdate) for Timer_1ms_CounterUpdate
    hdtimers.o(i.WaitMS_Start) refers to hdtimers.o(i.Timer_1ms_CounterUpdate) for Timer_1ms_CounterUpdate
    hdtimers.o(i.WaitMS_Wait) refers to hdtimers.o(i.Timer_1ms_CounterUpdate) for Timer_1ms_CounterUpdate
    hdtimers.o(i.WaitMS_Wait) refers to hdtimers.o(i.isTimerCompareOverflowX) for isTimerCompareOverflowX
    hdtimers.o(i.isTimerCompareOverflow) refers to hdtimers.o(i.isTimerCompareOverflowX) for isTimerCompareOverflowX
    pow.o(i.__hardfp_pow) refers (Special) to iusefp.o(.text) for __I$use$fp
    pow.o(i.__hardfp_pow) refers to dadd.o(.text) for __aeabi_dadd
    pow.o(i.__hardfp_pow) refers to errno.o(i.__set_errno) for __set_errno
    pow.o(i.__hardfp_pow) refers to dmul.o(.text) for __aeabi_dmul
    pow.o(i.__hardfp_pow) refers to ddiv.o(.text) for __aeabi_ddiv
    pow.o(i.__hardfp_pow) refers to sqrt.o(i.sqrt) for sqrt
    pow.o(i.__hardfp_pow) refers to fabs.o(i.fabs) for fabs
    pow.o(i.__hardfp_pow) refers to dunder.o(i.__mathlib_dbl_underflow) for __mathlib_dbl_underflow
    pow.o(i.__hardfp_pow) refers to qnan.o(.constdata) for __mathlib_zero
    pow.o(i.__hardfp_pow) refers to poly.o(i.__kernel_poly) for __kernel_poly
    pow.o(i.__hardfp_pow) refers to dflti.o(.text) for __aeabi_i2d
    pow.o(i.__hardfp_pow) refers to pow.o(.constdata) for .constdata
    pow.o(i.__hardfp_pow) refers to cdrcmple.o(.text) for __aeabi_cdrcmple
    pow.o(i.__hardfp_pow) refers to dscalb.o(.text) for __ARM_scalbn
    pow.o(i.__hardfp_pow) refers to fpclassify.o(i.__ARM_fpclassify) for __ARM_fpclassify
    pow.o(i.__softfp_pow) refers (Special) to iusefp.o(.text) for __I$use$fp
    pow.o(i.__softfp_pow) refers to pow.o(i.__hardfp_pow) for __hardfp_pow
    pow.o(i.pow) refers (Special) to iusefp.o(.text) for __I$use$fp
    pow.o(i.pow) refers to pow.o(i.__hardfp_pow) for __hardfp_pow
    pow.o(.constdata) refers (Special) to iusefp.o(.text) for __I$use$fp
    pow_x.o(i.____hardfp_pow$lsc) refers (Special) to iusefp.o(.text) for __I$use$fp
    pow_x.o(i.____hardfp_pow$lsc) refers to dadd.o(.text) for __aeabi_dadd
    pow_x.o(i.____hardfp_pow$lsc) refers to errno.o(i.__set_errno) for __set_errno
    pow_x.o(i.____hardfp_pow$lsc) refers to ddiv.o(.text) for __aeabi_ddiv
    pow_x.o(i.____hardfp_pow$lsc) refers to sqrt.o(i.sqrt) for sqrt
    pow_x.o(i.____hardfp_pow$lsc) refers to fabs.o(i.fabs) for fabs
    pow_x.o(i.____hardfp_pow$lsc) refers to dflti.o(.text) for __aeabi_i2d
    pow_x.o(i.____hardfp_pow$lsc) refers to dmul.o(.text) for __aeabi_dmul
    pow_x.o(i.____hardfp_pow$lsc) refers to qnan.o(.constdata) for __mathlib_zero
    pow_x.o(i.____hardfp_pow$lsc) refers to poly.o(i.__kernel_poly) for __kernel_poly
    pow_x.o(i.____hardfp_pow$lsc) refers to pow_x.o(.constdata) for .constdata
    pow_x.o(i.____hardfp_pow$lsc) refers to cdrcmple.o(.text) for __aeabi_cdrcmple
    pow_x.o(i.____hardfp_pow$lsc) refers to dscalb.o(.text) for __ARM_scalbn
    pow_x.o(i.____softfp_pow$lsc) refers (Special) to iusefp.o(.text) for __I$use$fp
    pow_x.o(i.____softfp_pow$lsc) refers to pow_x.o(i.____hardfp_pow$lsc) for ____hardfp_pow$lsc
    pow_x.o(i.__pow$lsc) refers (Special) to iusefp.o(.text) for __I$use$fp
    pow_x.o(i.__pow$lsc) refers to pow_x.o(i.____hardfp_pow$lsc) for ____hardfp_pow$lsc
    pow_x.o(.constdata) refers (Special) to iusefp.o(.text) for __I$use$fp
    entry.o(.ARM.Collect$$$$00000000) refers (Special) to entry10a.o(.ARM.Collect$$$$0000000D) for __rt_final_cpp
    entry.o(.ARM.Collect$$$$00000000) refers (Special) to entry11a.o(.ARM.Collect$$$$0000000F) for __rt_final_exit
    entry.o(.ARM.Collect$$$$00000000) refers (Special) to entry7b.o(.ARM.Collect$$$$00000008) for _main_clock
    entry.o(.ARM.Collect$$$$00000000) refers (Special) to entry8b.o(.ARM.Collect$$$$0000000A) for _main_cpp_init
    entry.o(.ARM.Collect$$$$00000000) refers (Special) to entry9a.o(.ARM.Collect$$$$0000000B) for _main_init
    entry.o(.ARM.Collect$$$$00000000) refers (Special) to entry5.o(.ARM.Collect$$$$00000004) for _main_scatterload
    entry.o(.ARM.Collect$$$$00000000) refers (Special) to entry2.o(.ARM.Collect$$$$00000001) for _main_stk
    uldiv.o(.text) refers to llushr.o(.text) for __aeabi_llsr
    uldiv.o(.text) refers to llshl.o(.text) for __aeabi_llsl
    malloc.o(i.free) refers to mvars.o(.data) for __microlib_freelist
    malloc.o(i.malloc) refers to mvars.o(.data) for __microlib_freelist_initialised
    malloc.o(i.malloc) refers to mvars.o(.data) for __microlib_freelist
    malloc.o(i.malloc) refers to startup_stm32f40_41xxx.o(HEAP) for __heap_base
    mallocr.o(i.__free$realloc) refers to mvars.o(.data) for __microlib_freelist
    mallocr.o(i.__malloc$realloc) refers to mallocr.o(i.internal_alloc) for internal_alloc
    mallocr.o(i.__malloc$realloc) refers to mvars.o(.data) for __microlib_freelist_initialised
    mallocr.o(i.__malloc$realloc) refers to startup_stm32f40_41xxx.o(HEAP) for __heap_base
    mallocr.o(i.__malloc$realloc) refers to mvars.o(.data) for __microlib_freelist
    mallocr.o(i.internal_alloc) refers to memcpya.o(.text) for __aeabi_memcpy
    mallocr.o(i.internal_alloc) refers to mvars.o(.data) for __microlib_freelist
    mallocr.o(i.realloc) refers to mallocr.o(i.__free$realloc) for __free$realloc
    mallocr.o(i.realloc) refers to mallocr.o(i.internal_alloc) for internal_alloc
    mallocr.o(i.realloc) refers to mallocr.o(i.__malloc$realloc) for __malloc$realloc
    mallocr.o(i.realloc) refers to mvars.o(.data) for __microlib_freelist
    malloca.o(i.__aligned_malloc) refers to mvars.o(.data) for __microlib_freelist_initialised
    malloca.o(i.__aligned_malloc) refers to mvars.o(.data) for __microlib_freelist
    malloca.o(i.__aligned_malloc) refers to startup_stm32f40_41xxx.o(HEAP) for __heap_base
    malloca.o(i.__free$memalign) refers to mvars.o(.data) for __microlib_freelist
    malloca.o(i.__malloc$memalign) refers to malloca.o(i.__aligned_malloc) for __aligned_malloc
    mallocra.o(i.__aligned_malloc$realloc) refers to mallocra.o(i.internal_alloc) for internal_alloc
    mallocra.o(i.__aligned_malloc$realloc) refers to mvars.o(.data) for __microlib_freelist_initialised
    mallocra.o(i.__aligned_malloc$realloc) refers to startup_stm32f40_41xxx.o(HEAP) for __heap_base
    mallocra.o(i.__aligned_malloc$realloc) refers to mvars.o(.data) for __microlib_freelist
    mallocra.o(i.__free$realloc$memalign) refers to mvars.o(.data) for __microlib_freelist
    mallocra.o(i.__malloc$realloc$memalign) refers to mallocra.o(i.__aligned_malloc$realloc) for __aligned_malloc$realloc
    mallocra.o(i.__realloc$memalign) refers to mallocra.o(i.__free$realloc$memalign) for __free$realloc$memalign
    mallocra.o(i.__realloc$memalign) refers to mallocra.o(i.internal_alloc) for internal_alloc
    mallocra.o(i.__realloc$memalign) refers to mallocra.o(i.__malloc$realloc$memalign) for __malloc$realloc$memalign
    mallocra.o(i.__realloc$memalign) refers to mvars.o(.data) for __microlib_freelist
    mallocra.o(i.internal_alloc) refers to memcpya.o(.text) for __aeabi_memcpy
    mallocra.o(i.internal_alloc) refers to mvars.o(.data) for __microlib_freelist
    dadd.o(.text) refers (Special) to iusefp.o(.text) for __I$use$fp
    dadd.o(.text) refers to llshl.o(.text) for __aeabi_llsl
    dadd.o(.text) refers to llsshr.o(.text) for __aeabi_lasr
    dadd.o(.text) refers to depilogue.o(.text) for _double_epilogue
    dmul.o(.text) refers (Special) to iusefp.o(.text) for __I$use$fp
    dmul.o(.text) refers to depilogue.o(.text) for _double_epilogue
    ddiv.o(.text) refers (Special) to iusefp.o(.text) for __I$use$fp
    ddiv.o(.text) refers to depilogue.o(.text) for _double_round
    dfltui.o(.text) refers (Special) to iusefp.o(.text) for __I$use$fp
    dfltui.o(.text) refers to depilogue.o(.text) for _double_epilogue
    dfixui.o(.text) refers (Special) to iusefp.o(.text) for __I$use$fp
    dfixui.o(.text) refers to llushr.o(.text) for __aeabi_llsr
    dfixul.o(.text) refers (Special) to iusefp.o(.text) for __I$use$fp
    dfixul.o(.text) refers to llushr.o(.text) for __aeabi_llsr
    dfixul.o(.text) refers to llshl.o(.text) for __aeabi_llsl
    f2d.o(.text) refers (Special) to iusefp.o(.text) for __I$use$fp
    cdcmple.o(.text) refers (Special) to iusefp.o(.text) for __I$use$fp
    cdrcmple.o(.text) refers (Special) to iusefp.o(.text) for __I$use$fp
    d2f.o(.text) refers (Special) to iusefp.o(.text) for __I$use$fp
    d2f.o(.text) refers to fepilogue.o(.text) for _float_round
    dunder.o(i.__mathlib_dbl_underflow) refers to dmul.o(.text) for __aeabi_dmul
    fabs.o(i.__hardfp_fabs) refers (Special) to iusefp.o(.text) for __I$use$fp
    fabs.o(i.__softfp_fabs) refers (Special) to iusefp.o(.text) for __I$use$fp
    fabs.o(i.fabs) refers (Special) to iusefp.o(.text) for __I$use$fp
    fpclassify.o(i.__ARM_fpclassify) refers (Special) to iusefp.o(.text) for __I$use$fp
    poly.o(i.__kernel_poly) refers (Special) to iusefp.o(.text) for __I$use$fp
    poly.o(i.__kernel_poly) refers to dmul.o(.text) for __aeabi_dmul
    poly.o(i.__kernel_poly) refers to dadd.o(.text) for __aeabi_dadd
    qnan.o(.constdata) refers (Special) to iusefp.o(.text) for __I$use$fp
    sqrt.o(i.__hardfp_sqrt) refers (Special) to iusefp.o(.text) for __I$use$fp
    sqrt.o(i.__hardfp_sqrt) refers to dsqrt.o(.text) for _dsqrt
    sqrt.o(i.__hardfp_sqrt) refers to errno.o(i.__set_errno) for __set_errno
    sqrt.o(i.__softfp_sqrt) refers (Special) to iusefp.o(.text) for __I$use$fp
    sqrt.o(i.__softfp_sqrt) refers to dsqrt.o(.text) for _dsqrt
    sqrt.o(i.__softfp_sqrt) refers to errno.o(i.__set_errno) for __set_errno
    sqrt.o(i.sqrt) refers (Special) to iusefp.o(.text) for __I$use$fp
    sqrt.o(i.sqrt) refers to dsqrt.o(.text) for _dsqrt
    sqrt.o(i.sqrt) refers to errno.o(i.__set_errno) for __set_errno
    sqrt_x.o(i.____hardfp_sqrt$lsc) refers (Special) to iusefp.o(.text) for __I$use$fp
    sqrt_x.o(i.____hardfp_sqrt$lsc) refers to cdcmple.o(.text) for __aeabi_cdcmple
    sqrt_x.o(i.____hardfp_sqrt$lsc) refers to errno.o(i.__set_errno) for __set_errno
    sqrt_x.o(i.____hardfp_sqrt$lsc) refers to dsqrt.o(.text) for _dsqrt
    sqrt_x.o(i.____softfp_sqrt$lsc) refers (Special) to iusefp.o(.text) for __I$use$fp
    sqrt_x.o(i.____softfp_sqrt$lsc) refers to cdcmple.o(.text) for __aeabi_cdcmple
    sqrt_x.o(i.____softfp_sqrt$lsc) refers to errno.o(i.__set_errno) for __set_errno
    sqrt_x.o(i.____softfp_sqrt$lsc) refers to dsqrt.o(.text) for _dsqrt
    sqrt_x.o(i.__sqrt$lsc) refers (Special) to iusefp.o(.text) for __I$use$fp
    sqrt_x.o(i.__sqrt$lsc) refers to cdcmple.o(.text) for __aeabi_cdcmple
    sqrt_x.o(i.__sqrt$lsc) refers to errno.o(i.__set_errno) for __set_errno
    sqrt_x.o(i.__sqrt$lsc) refers to dsqrt.o(.text) for _dsqrt
    entry2.o(.ARM.Collect$$$$00000001) refers to entry2.o(.ARM.Collect$$$$00002712) for __lit__00000000
    entry2.o(.ARM.Collect$$$$00002712) refers to startup_stm32f40_41xxx.o(STACK) for __initial_sp
    entry2.o(__vectab_stack_and_reset_area) refers to startup_stm32f40_41xxx.o(STACK) for __initial_sp
    entry2.o(__vectab_stack_and_reset_area) refers to entry.o(.ARM.Collect$$$$00000000) for __main
    entry5.o(.ARM.Collect$$$$00000004) refers to init.o(.text) for __scatterload
    entry9a.o(.ARM.Collect$$$$0000000B) refers to main.o(i.main) for main
    entry9b.o(.ARM.Collect$$$$0000000C) refers to main.o(i.main) for main
    errno.o(i.__aeabi_errno_addr) refers to errno.o(.data) for .data
    errno.o(i.__read_errno) refers to errno.o(.data) for .data
    errno.o(i.__set_errno) refers to errno.o(.data) for .data
    depilogue.o(.text) refers to llshl.o(.text) for __aeabi_llsl
    depilogue.o(.text) refers to llushr.o(.text) for __aeabi_llsr
    dflti.o(.text) refers to depilogue.o(.text) for _double_epilogue
    init.o(.text) refers to entry5.o(.ARM.Collect$$$$00000004) for __main_after_scatterload
    dsqrt.o(.text) refers to llushr.o(.text) for __aeabi_llsr
    dsqrt.o(.text) refers to depilogue.o(.text) for _double_round


==============================================================================

Removing Unused input sections from the image.

    Removing startup_stm32f40_41xxx.o(ccmram), (0 bytes).
    Removing chipay_digitalsample.o(.rev16_text), (4 bytes).
    Removing chipay_digitalsample.o(.revsh_text), (4 bytes).
    Removing chipay_digitalplayer.o(.rev16_text), (4 bytes).
    Removing chipay_digitalplayer.o(.revsh_text), (4 bytes).
    Removing process.o(.rev16_text), (4 bytes).
    Removing process.o(.revsh_text), (4 bytes).
    Removing chipay_test.o(.rev16_text), (4 bytes).
    Removing chipay_test.o(.revsh_text), (4 bytes).
    Removing chipay_test.o(i.MPU_ExceptionByDMA_Test), (72 bytes).
    Removing chipay_test.o(i.MPU_RegionConfig), (148 bytes).
    Removing chipay_test.o(i.TEST_Spi), (324 bytes).
    Removing chipay_test.o(i.TEST_SpiSend), (44 bytes).
    Removing chipay_test.o(.data), (48 bytes).
    Removing testcase.o(.rev16_text), (4 bytes).
    Removing testcase.o(.revsh_text), (4 bytes).
    Removing testcase.o(i.tstcasTimerTest), (2 bytes).
    Removing main.o(.rev16_text), (4 bytes).
    Removing main.o(.revsh_text), (4 bytes).
    Removing chipay_bootflasher.o(.rev16_text), (4 bytes).
    Removing chipay_bootflasher.o(.revsh_text), (4 bytes).
    Removing chipay_ws_process.o(.rev16_text), (4 bytes).
    Removing chipay_ws_process.o(.revsh_text), (4 bytes).
    Removing memoryallocator.o(.rev16_text), (4 bytes).
    Removing memoryallocator.o(.revsh_text), (4 bytes).
    Removing memoryallocator.o(i.ShowGroup), (124 bytes).
    Removing memoryallocator.o(i.mallocShowDesc), (220 bytes).
    Removing memoryallocator.o(i.mallocTets), (288 bytes).
    Removing memoryallocator.o(i.memalDescClrFlag), (52 bytes).
    Removing memoryallocator.o(i.memalDescFindByAddr), (76 bytes).
    Removing memoryallocator.o(i.memalDescGetFlag), (40 bytes).
    Removing memoryallocator.o(i.memalDescGetSize), (56 bytes).
    Removing memoryallocator.o(i.memalMemDescFree), (16 bytes).
    Removing memoryallocator.o(i.memalTotalSize), (48 bytes).
    Removing chipay_streamdata.o(.rev16_text), (4 bytes).
    Removing chipay_streamdata.o(.revsh_text), (4 bytes).
    Removing chipay_streamdata.o(i.cayStrmCacheClear), (10 bytes).
    Removing chipay_streamdata.o(i.cayStrmCacheDescMemAddPOS), (108 bytes).
    Removing chipay_streamdata.o(i.cayStrmCacheDescMemFlush), (36 bytes).
    Removing chipay_streamdata.o(i.cayStrmCacheDescMemParsingINSDATA), (112 bytes).
    Removing chipay_streamdata.o(i.cayStrmFifoINrdB), (26 bytes).
    Removing chipay_streamdata.o(i.cayStrmFifoINwrB), (32 bytes).
    Removing chipay_streamdata.o(i.cayStrmFifoINwrClear), (6 bytes).
    Removing chipay_streamdata.o(i.cayStrmFifoINwrFree), (12 bytes).
    Removing chipay_streamdata.o(i.cayStrmFifoOUrdB), (26 bytes).
    Removing chipay_streamdata.o(i.cayStrmFifoOUwrClear), (6 bytes).
    Removing chipay_streamdata.o(i.cayStrmFifoOUwrSize), (6 bytes).
    Removing chipay_streamdata.o(i.cayStrmFlagClr), (10 bytes).
    Removing chipay.o(.rev16_text), (4 bytes).
    Removing chipay.o(.revsh_text), (4 bytes).
    Removing chipay_interrupt.o(.rev16_text), (4 bytes).
    Removing chipay_interrupt.o(.revsh_text), (4 bytes).
    Removing chipay_interrupt.o(i.EXTI_SetITStatus), (12 bytes).
    Removing chipay_interrupt.o(ccmram), (4 bytes).
    Removing chipay_interrupt.o(ccmram), (4 bytes).
    Removing chipay_interrupt.o(ccmram), (4 bytes).
    Removing chipay_interrupt.o(ccmram), (4 bytes).
    Removing chipay_interrupt.o(ccmram), (4 bytes).
    Removing chipay_hardware.o(.rev16_text), (4 bytes).
    Removing chipay_hardware.o(.revsh_text), (4 bytes).
    Removing chipay_wildsound.o(.rev16_text), (4 bytes).
    Removing chipay_wildsound.o(.revsh_text), (4 bytes).
    Removing chipay_main.o(.rev16_text), (4 bytes).
    Removing chipay_main.o(.revsh_text), (4 bytes).
    Removing bootflasherf4.o(.rev16_text), (4 bytes).
    Removing bootflasherf4.o(.revsh_text), (4 bytes).
    Removing bootflasherf4.o(i.bflBootBlockPBUF), (12 bytes).
    Removing bootflasherf4.o(i.bflBootExtremalExecFlash), (44 bytes).
    Removing bootflasherf4.o(i.bflBootProgramBlock), (46 bytes).
    Removing bootflasherf4.o(i.bflBootProgramBlockType), (28 bytes).
    Removing bootflasherf4.o(i.bflBootProgramErase), (102 bytes).
    Removing bootflasherf4.o(i.bflDataAddBuffer), (32 bytes).
    Removing bootflasherf4.o(i.bflDataAddByte), (232 bytes).
    Removing bootflasherf4.o(i.bflDataStart), (40 bytes).
    Removing bootflasherf4.o(i.bflFlashCompareBlock), (36 bytes).
    Removing rb_crc16.o(.rev16_text), (4 bytes).
    Removing rb_crc16.o(.revsh_text), (4 bytes).
    Removing rb_crc16.o(i.crc16_byte), (24 bytes).
    Removing rb_crc16.o(i.crc16_str_CCITT), (48 bytes).
    Removing core_uid.o(.rev16_text), (4 bytes).
    Removing core_uid.o(.revsh_text), (4 bytes).
    Removing rb_base64m.o(.rev16_text), (4 bytes).
    Removing rb_base64m.o(.revsh_text), (4 bytes).
    Removing rb_base64m.o(i.BASE64_T_TBD), (22 bytes).
    Removing rb_base64m.o(i.BASE64m_DeCode), (212 bytes).
    Removing rb_base64m.o(i.BASE64m_DeCodeStart), (8 bytes).
    Removing rb_base64m.o(i.BASE64m_DeCodeStep), (168 bytes).
    Removing rb_base64m.o(i.BASE64m_EnCode), (106 bytes).
    Removing rb_base64m.o(i.BASE64m_EnCodeFlush), (28 bytes).
    Removing rb_base64m.o(i.BASE64m_EnCodeStart), (8 bytes).
    Removing rb_base64m.o(i.BASE64m_EnCodeStep), (98 bytes).
    Removing rb_base64m.o(i.BASE64m_EnCodeStepD), (202 bytes).
    Removing rb_base64m.o(i.BASE64m_EnCodeStepPTR), (26 bytes).
    Removing rb_base64m.o(i.BASE64m_Init), (4 bytes).
    Removing rb_base64m.o(.data), (8 bytes).
    Removing rb_fifo.o(.rev16_text), (4 bytes).
    Removing rb_fifo.o(.revsh_text), (4 bytes).
    Removing rb_fifo.o(i.rb_fifo_ofs_rd), (22 bytes).
    Removing rb_fifo.o(i.rb_fifo_ofs_rd_D), (18 bytes).
    Removing rb_fifo.o(i.rb_fifo_ofs_rd_T), (18 bytes).
    Removing rb_fifo.o(i.rb_fifo_ofs_rd_W), (22 bytes).
    Removing rb_fifo.o(i.rb_fifo_ofs_rd_blk), (140 bytes).
    Removing rb_fifo.o(i.rb_fifo_ofs_rd_blk_is), (148 bytes).
    Removing rb_fifo.o(i.rb_fifo_rd_W), (104 bytes).
    Removing rb_fifo.o(i.rb_fifo_rd_blk), (110 bytes).
    Removing rb_fifo.o(i.rb_fifo_wr_W), (14 bytes).
    Removing rb_fifo.o(i.rb_fifo_wr_blkA), (140 bytes).
    Removing rb_fifo.o(i.rb_fifo_wr_wait), (54 bytes).
    Removing rb_util.o(.rev16_text), (4 bytes).
    Removing rb_util.o(.revsh_text), (4 bytes).
    Removing rb_util.o(i.rb_CompareSTR), (32 bytes).
    Removing rb_util.o(i.rb_CopyBlock), (84 bytes).
    Removing rb_util.o(i.rb_CopyBlockMaxSize), (92 bytes).
    Removing rb_util.o(i.rb_CopySTR), (20 bytes).
    Removing rb_util.o(i.rb_FillChar), (68 bytes).
    Removing rb_util.o(i.rb_HexGet), (42 bytes).
    Removing rb_util.o(i.rb_HexToInt), (70 bytes).
    Removing rb_util.o(i.rb_IntToBIN), (8 bytes).
    Removing rb_util.o(i.rb_LengthSTR), (22 bytes).
    Removing rb_util.o(i.rb_MaxD), (8 bytes).
    Removing rb_util.o(i.rb_RangeS32), (16 bytes).
    Removing rb_util.o(i.rb_RangeU32), (16 bytes).
    Removing rb_util.o(i.rb_RolBlock), (88 bytes).
    Removing rb_util.o(i.rb_StrIns), (174 bytes).
    Removing rb_util.o(i.rb_StrSet), (16 bytes).
    Removing rb_util.o(.constdata), (256 bytes).
    Removing cortex_rb_sys.o(.rev16_text), (4 bytes).
    Removing cortex_rb_sys.o(.revsh_text), (4 bytes).
    Removing misc.o(.rev16_text), (4 bytes).
    Removing misc.o(.revsh_text), (4 bytes).
    Removing misc.o(i.NVIC_PriorityGroupConfig), (20 bytes).
    Removing misc.o(i.NVIC_SetVectorTable), (20 bytes).
    Removing misc.o(i.NVIC_SystemLPConfig), (24 bytes).
    Removing misc.o(i.SysTick_CLKSourceConfig), (24 bytes).
    Removing stm32f4xx_adc.o(.rev16_text), (4 bytes).
    Removing stm32f4xx_adc.o(.revsh_text), (4 bytes).
    Removing stm32f4xx_adc.o(i.ADC_AnalogWatchdogCmd), (16 bytes).
    Removing stm32f4xx_adc.o(i.ADC_AnalogWatchdogSingleChannelConfig), (12 bytes).
    Removing stm32f4xx_adc.o(i.ADC_AnalogWatchdogThresholdsConfig), (6 bytes).
    Removing stm32f4xx_adc.o(i.ADC_AutoInjectedConvCmd), (20 bytes).
    Removing stm32f4xx_adc.o(i.ADC_ClearFlag), (6 bytes).
    Removing stm32f4xx_adc.o(i.ADC_ClearITPendingBit), (8 bytes).
    Removing stm32f4xx_adc.o(i.ADC_Cmd), (20 bytes).
    Removing stm32f4xx_adc.o(i.ADC_CommonInit), (40 bytes).
    Removing stm32f4xx_adc.o(i.ADC_CommonStructInit), (12 bytes).
    Removing stm32f4xx_adc.o(i.ADC_ContinuousModeCmd), (20 bytes).
    Removing stm32f4xx_adc.o(i.ADC_DMACmd), (20 bytes).
    Removing stm32f4xx_adc.o(i.ADC_DMARequestAfterLastTransferCmd), (20 bytes).
    Removing stm32f4xx_adc.o(i.ADC_DeInit), (24 bytes).
    Removing stm32f4xx_adc.o(i.ADC_DiscModeChannelCountConfig), (16 bytes).
    Removing stm32f4xx_adc.o(i.ADC_DiscModeCmd), (20 bytes).
    Removing stm32f4xx_adc.o(i.ADC_EOCOnEachRegularChannelCmd), (20 bytes).
    Removing stm32f4xx_adc.o(i.ADC_ExternalTrigInjectedConvConfig), (12 bytes).
    Removing stm32f4xx_adc.o(i.ADC_ExternalTrigInjectedConvEdgeConfig), (12 bytes).
    Removing stm32f4xx_adc.o(i.ADC_GetConversionValue), (6 bytes).
    Removing stm32f4xx_adc.o(i.ADC_GetFlagStatus), (14 bytes).
    Removing stm32f4xx_adc.o(i.ADC_GetITStatus), (30 bytes).
    Removing stm32f4xx_adc.o(i.ADC_GetInjectedConversionValue), (14 bytes).
    Removing stm32f4xx_adc.o(i.ADC_GetMultiModeConversionValue), (12 bytes).
    Removing stm32f4xx_adc.o(i.ADC_GetSoftwareStartConvStatus), (14 bytes).
    Removing stm32f4xx_adc.o(i.ADC_GetSoftwareStartInjectedConvCmdStatus), (14 bytes).
    Removing stm32f4xx_adc.o(i.ADC_ITConfig), (18 bytes).
    Removing stm32f4xx_adc.o(i.ADC_Init), (76 bytes).
    Removing stm32f4xx_adc.o(i.ADC_InjectedChannelConfig), (74 bytes).
    Removing stm32f4xx_adc.o(i.ADC_InjectedDiscModeCmd), (20 bytes).
    Removing stm32f4xx_adc.o(i.ADC_InjectedSequencerLengthConfig), (16 bytes).
    Removing stm32f4xx_adc.o(i.ADC_MultiModeDMARequestAfterLastTransferCmd), (32 bytes).
    Removing stm32f4xx_adc.o(i.ADC_RegularChannelConfig), (116 bytes).
    Removing stm32f4xx_adc.o(i.ADC_SetInjectedOffset), (10 bytes).
    Removing stm32f4xx_adc.o(i.ADC_SoftwareStartConv), (10 bytes).
    Removing stm32f4xx_adc.o(i.ADC_SoftwareStartInjectedConv), (10 bytes).
    Removing stm32f4xx_adc.o(i.ADC_StructInit), (20 bytes).
    Removing stm32f4xx_adc.o(i.ADC_TempSensorVrefintCmd), (32 bytes).
    Removing stm32f4xx_adc.o(i.ADC_VBATCmd), (32 bytes).
    Removing stm32f4xx_can.o(.rev16_text), (4 bytes).
    Removing stm32f4xx_can.o(.revsh_text), (4 bytes).
    Removing stm32f4xx_can.o(i.CAN_CancelTransmit), (36 bytes).
    Removing stm32f4xx_can.o(i.CAN_ClearFlag), (48 bytes).
    Removing stm32f4xx_can.o(i.CAN_ClearITPendingBit), (120 bytes).
    Removing stm32f4xx_can.o(i.CAN_DBGFreeze), (20 bytes).
    Removing stm32f4xx_can.o(i.CAN_DeInit), (44 bytes).
    Removing stm32f4xx_can.o(i.CAN_FIFORelease), (22 bytes).
    Removing stm32f4xx_can.o(i.CAN_FilterInit), (196 bytes).
    Removing stm32f4xx_can.o(i.CAN_GetFlagStatus), (52 bytes).
    Removing stm32f4xx_can.o(i.CAN_GetITStatus), (168 bytes).
    Removing stm32f4xx_can.o(i.CAN_GetLSBTransmitErrorCounter), (8 bytes).
    Removing stm32f4xx_can.o(i.CAN_GetLastErrorCode), (10 bytes).
    Removing stm32f4xx_can.o(i.CAN_GetReceiveErrorCounter), (6 bytes).
    Removing stm32f4xx_can.o(i.CAN_ITConfig), (16 bytes).
    Removing stm32f4xx_can.o(i.CAN_Init), (232 bytes).
    Removing stm32f4xx_can.o(i.CAN_MessagePending), (22 bytes).
    Removing stm32f4xx_can.o(i.CAN_OperatingModeRequest), (140 bytes).
    Removing stm32f4xx_can.o(i.CAN_Receive), (126 bytes).
    Removing stm32f4xx_can.o(i.CAN_SlaveStartBank), (44 bytes).
    Removing stm32f4xx_can.o(i.CAN_Sleep), (30 bytes).
    Removing stm32f4xx_can.o(i.CAN_StructInit), (32 bytes).
    Removing stm32f4xx_can.o(i.CAN_TTComModeCmd), (90 bytes).
    Removing stm32f4xx_can.o(i.CAN_Transmit), (152 bytes).
    Removing stm32f4xx_can.o(i.CAN_TransmitStatus), (108 bytes).
    Removing stm32f4xx_can.o(i.CAN_WakeUp), (42 bytes).
    Removing stm32f4xx_can.o(i.CheckITStatus), (12 bytes).
    Removing stm32f4xx_crc.o(.rev16_text), (4 bytes).
    Removing stm32f4xx_crc.o(.revsh_text), (4 bytes).
    Removing stm32f4xx_crc.o(i.CRC_CalcBlockCRC), (28 bytes).
    Removing stm32f4xx_crc.o(i.CRC_CalcCRC), (12 bytes).
    Removing stm32f4xx_crc.o(i.CRC_GetCRC), (12 bytes).
    Removing stm32f4xx_crc.o(i.CRC_GetIDRegister), (12 bytes).
    Removing stm32f4xx_crc.o(i.CRC_ResetDR), (12 bytes).
    Removing stm32f4xx_crc.o(i.CRC_SetIDRegister), (12 bytes).
    Removing stm32f4xx_cryp.o(.rev16_text), (4 bytes).
    Removing stm32f4xx_cryp.o(.revsh_text), (4 bytes).
    Removing stm32f4xx_cryp.o(i.CRYP_Cmd), (28 bytes).
    Removing stm32f4xx_cryp.o(i.CRYP_DMACmd), (28 bytes).
    Removing stm32f4xx_cryp.o(i.CRYP_DataIn), (12 bytes).
    Removing stm32f4xx_cryp.o(i.CRYP_DataOut), (12 bytes).
    Removing stm32f4xx_cryp.o(i.CRYP_DeInit), (22 bytes).
    Removing stm32f4xx_cryp.o(i.CRYP_FIFOFlush), (16 bytes).
    Removing stm32f4xx_cryp.o(i.CRYP_GetFlagStatus), (28 bytes).
    Removing stm32f4xx_cryp.o(i.CRYP_GetITStatus), (20 bytes).
    Removing stm32f4xx_cryp.o(i.CRYP_ITConfig), (28 bytes).
    Removing stm32f4xx_cryp.o(i.CRYP_IVInit), (24 bytes).
    Removing stm32f4xx_cryp.o(i.CRYP_IVStructInit), (12 bytes).
    Removing stm32f4xx_cryp.o(i.CRYP_Init), (92 bytes).
    Removing stm32f4xx_cryp.o(i.CRYP_KeyInit), (40 bytes).
    Removing stm32f4xx_cryp.o(i.CRYP_KeyStructInit), (20 bytes).
    Removing stm32f4xx_cryp.o(i.CRYP_RestoreContext), (68 bytes).
    Removing stm32f4xx_cryp.o(i.CRYP_SaveContext), (144 bytes).
    Removing stm32f4xx_cryp.o(i.CRYP_StructInit), (12 bytes).
    Removing stm32f4xx_cryp_aes.o(.rev16_text), (4 bytes).
    Removing stm32f4xx_cryp_aes.o(.revsh_text), (4 bytes).
    Removing stm32f4xx_cryp_aes.o(i.CRYP_AES_CBC), (446 bytes).
    Removing stm32f4xx_cryp_aes.o(i.CRYP_AES_CTR), (390 bytes).
    Removing stm32f4xx_cryp_aes.o(i.CRYP_AES_ECB), (412 bytes).
    Removing stm32f4xx_cryp_des.o(.rev16_text), (4 bytes).
    Removing stm32f4xx_cryp_des.o(.revsh_text), (4 bytes).
    Removing stm32f4xx_cryp_des.o(i.CRYP_DES_CBC), (224 bytes).
    Removing stm32f4xx_cryp_des.o(i.CRYP_DES_ECB), (202 bytes).
    Removing stm32f4xx_cryp_tdes.o(.rev16_text), (4 bytes).
    Removing stm32f4xx_cryp_tdes.o(.revsh_text), (4 bytes).
    Removing stm32f4xx_cryp_tdes.o(i.CRYP_TDES_CBC), (248 bytes).
    Removing stm32f4xx_cryp_tdes.o(i.CRYP_TDES_ECB), (224 bytes).
    Removing stm32f4xx_dac.o(.rev16_text), (4 bytes).
    Removing stm32f4xx_dac.o(.revsh_text), (4 bytes).
    Removing stm32f4xx_dac.o(i.DAC_ClearFlag), (12 bytes).
    Removing stm32f4xx_dac.o(i.DAC_ClearITPendingBit), (12 bytes).
    Removing stm32f4xx_dac.o(i.DAC_DeInit), (24 bytes).
    Removing stm32f4xx_dac.o(i.DAC_DualSoftwareTriggerCmd), (28 bytes).
    Removing stm32f4xx_dac.o(i.DAC_GetDataOutputValue), (24 bytes).
    Removing stm32f4xx_dac.o(i.DAC_GetFlagStatus), (24 bytes).
    Removing stm32f4xx_dac.o(i.DAC_GetITStatus), (36 bytes).
    Removing stm32f4xx_dac.o(i.DAC_ITConfig), (24 bytes).
    Removing stm32f4xx_dac.o(i.DAC_SetChannel1Data), (20 bytes).
    Removing stm32f4xx_dac.o(i.DAC_SetChannel2Data), (20 bytes).
    Removing stm32f4xx_dac.o(i.DAC_SetDualChannelData), (28 bytes).
    Removing stm32f4xx_dac.o(i.DAC_SoftwareTriggerCmd), (28 bytes).
    Removing stm32f4xx_dac.o(i.DAC_StructInit), (12 bytes).
    Removing stm32f4xx_dac.o(i.DAC_WaveGenerationCmd), (24 bytes).
    Removing stm32f4xx_dbgmcu.o(.rev16_text), (4 bytes).
    Removing stm32f4xx_dbgmcu.o(.revsh_text), (4 bytes).
    Removing stm32f4xx_dbgmcu.o(i.DBGMCU_APB1PeriphConfig), (24 bytes).
    Removing stm32f4xx_dbgmcu.o(i.DBGMCU_APB2PeriphConfig), (24 bytes).
    Removing stm32f4xx_dbgmcu.o(i.DBGMCU_Config), (24 bytes).
    Removing stm32f4xx_dbgmcu.o(i.DBGMCU_GetDEVID), (16 bytes).
    Removing stm32f4xx_dbgmcu.o(i.DBGMCU_GetREVID), (12 bytes).
    Removing stm32f4xx_dcmi.o(.rev16_text), (4 bytes).
    Removing stm32f4xx_dcmi.o(.revsh_text), (4 bytes).
    Removing stm32f4xx_dcmi.o(i.DCMI_CROPCmd), (28 bytes).
    Removing stm32f4xx_dcmi.o(i.DCMI_CROPConfig), (24 bytes).
    Removing stm32f4xx_dcmi.o(i.DCMI_CaptureCmd), (28 bytes).
    Removing stm32f4xx_dcmi.o(i.DCMI_ClearFlag), (12 bytes).
    Removing stm32f4xx_dcmi.o(i.DCMI_ClearITPendingBit), (12 bytes).
    Removing stm32f4xx_dcmi.o(i.DCMI_Cmd), (28 bytes).
    Removing stm32f4xx_dcmi.o(i.DCMI_DeInit), (28 bytes).
    Removing stm32f4xx_dcmi.o(i.DCMI_GetFlagStatus), (40 bytes).
    Removing stm32f4xx_dcmi.o(i.DCMI_GetITStatus), (20 bytes).
    Removing stm32f4xx_dcmi.o(i.DCMI_ITConfig), (28 bytes).
    Removing stm32f4xx_dcmi.o(i.DCMI_Init), (60 bytes).
    Removing stm32f4xx_dcmi.o(i.DCMI_JPEGCmd), (28 bytes).
    Removing stm32f4xx_dcmi.o(i.DCMI_ReadData), (12 bytes).
    Removing stm32f4xx_dcmi.o(i.DCMI_SetEmbeddedSynchroCodes), (20 bytes).
    Removing stm32f4xx_dcmi.o(i.DCMI_StructInit), (18 bytes).
    Removing stm32f4xx_dma.o(.rev16_text), (4 bytes).
    Removing stm32f4xx_dma.o(.revsh_text), (4 bytes).
    Removing stm32f4xx_dma.o(i.DMA_ClearITPendingBit), (44 bytes).
    Removing stm32f4xx_dma.o(i.DMA_DeInit), (292 bytes).
    Removing stm32f4xx_dma.o(i.DMA_DoubleBufferModeCmd), (20 bytes).
    Removing stm32f4xx_dma.o(i.DMA_DoubleBufferModeConfig), (22 bytes).
    Removing stm32f4xx_dma.o(i.DMA_FlowControllerConfig), (20 bytes).
    Removing stm32f4xx_dma.o(i.DMA_GetCmdStatus), (14 bytes).
    Removing stm32f4xx_dma.o(i.DMA_GetCurrDataCounter), (6 bytes).
    Removing stm32f4xx_dma.o(i.DMA_GetCurrentMemoryTarget), (14 bytes).
    Removing stm32f4xx_dma.o(i.DMA_GetFIFOStatus), (8 bytes).
    Removing stm32f4xx_dma.o(i.DMA_GetFlagStatus), (52 bytes).
    Removing stm32f4xx_dma.o(i.DMA_GetITStatus), (84 bytes).
    Removing stm32f4xx_dma.o(i.DMA_MemoryTargetConfig), (10 bytes).
    Removing stm32f4xx_dma.o(i.DMA_PeriphIncOffsetSizeConfig), (20 bytes).
    Removing stm32f4xx_dma.o(i.DMA_SetCurrDataCounter), (4 bytes).
    Removing stm32f4xx_dma.o(i.DMA_StructInit), (34 bytes).
    Removing stm32f4xx_exti.o(.rev16_text), (4 bytes).
    Removing stm32f4xx_exti.o(.revsh_text), (4 bytes).
    Removing stm32f4xx_exti.o(i.EXTI_ClearFlag), (12 bytes).
    Removing stm32f4xx_exti.o(i.EXTI_DeInit), (36 bytes).
    Removing stm32f4xx_exti.o(i.EXTI_GenerateSWInterrupt), (16 bytes).
    Removing stm32f4xx_exti.o(i.EXTI_GetFlagStatus), (20 bytes).
    Removing stm32f4xx_exti.o(i.EXTI_GetITStatus), (32 bytes).
    Removing stm32f4xx_exti.o(i.EXTI_StructInit), (14 bytes).
    Removing stm32f4xx_flash.o(.rev16_text), (4 bytes).
    Removing stm32f4xx_flash.o(.revsh_text), (4 bytes).
    Removing stm32f4xx_flash.o(i.FLASH_EraseAllSectors), (92 bytes).
    Removing stm32f4xx_flash.o(i.FLASH_GetFlagStatus), (20 bytes).
    Removing stm32f4xx_flash.o(i.FLASH_ITConfig), (24 bytes).
    Removing stm32f4xx_flash.o(i.FLASH_OB_BORConfig), (24 bytes).
    Removing stm32f4xx_flash.o(i.FLASH_OB_GetBOR), (16 bytes).
    Removing stm32f4xx_flash.o(i.FLASH_OB_GetRDP), (20 bytes).
    Removing stm32f4xx_flash.o(i.FLASH_OB_GetUser), (16 bytes).
    Removing stm32f4xx_flash.o(i.FLASH_OB_GetWRP), (12 bytes).
    Removing stm32f4xx_flash.o(i.FLASH_OB_Launch), (20 bytes).
    Removing stm32f4xx_flash.o(i.FLASH_OB_Lock), (16 bytes).
    Removing stm32f4xx_flash.o(i.FLASH_OB_RDPConfig), (24 bytes).
    Removing stm32f4xx_flash.o(i.FLASH_OB_UserConfig), (40 bytes).
    Removing stm32f4xx_flash.o(i.FLASH_OB_WRPConfig), (36 bytes).
    Removing stm32f4xx_flash.o(i.FLASH_ProgramByte), (56 bytes).
    Removing stm32f4xx_flash.o(i.FLASH_ProgramDoubleWord), (64 bytes).
    Removing stm32f4xx_flash.o(i.FLASH_ProgramWord), (60 bytes).
    Removing stm32f4xx_fsmc.o(.rev16_text), (4 bytes).
    Removing stm32f4xx_fsmc.o(.revsh_text), (4 bytes).
    Removing stm32f4xx_fsmc.o(i.FSMC_ClearFlag), (36 bytes).
    Removing stm32f4xx_fsmc.o(i.FSMC_ClearITPendingBit), (40 bytes).
    Removing stm32f4xx_fsmc.o(i.FSMC_GetECC), (18 bytes).
    Removing stm32f4xx_fsmc.o(i.FSMC_GetFlagStatus), (40 bytes).
    Removing stm32f4xx_fsmc.o(i.FSMC_GetITStatus), (48 bytes).
    Removing stm32f4xx_fsmc.o(i.FSMC_ITConfig), (68 bytes).
    Removing stm32f4xx_fsmc.o(i.FSMC_NANDCmd), (56 bytes).
    Removing stm32f4xx_fsmc.o(i.FSMC_NANDDeInit), (40 bytes).
    Removing stm32f4xx_fsmc.o(i.FSMC_NANDECCCmd), (56 bytes).
    Removing stm32f4xx_fsmc.o(i.FSMC_NANDInit), (104 bytes).
    Removing stm32f4xx_fsmc.o(i.FSMC_NANDStructInit), (54 bytes).
    Removing stm32f4xx_fsmc.o(i.FSMC_NORSRAMCmd), (32 bytes).
    Removing stm32f4xx_fsmc.o(i.FSMC_NORSRAMDeInit), (36 bytes).
    Removing stm32f4xx_fsmc.o(i.FSMC_NORSRAMInit), (192 bytes).
    Removing stm32f4xx_fsmc.o(i.FSMC_NORSRAMStructInit), (98 bytes).
    Removing stm32f4xx_fsmc.o(i.FSMC_PCCARDCmd), (32 bytes).
    Removing stm32f4xx_fsmc.o(i.FSMC_PCCARDDeInit), (28 bytes).
    Removing stm32f4xx_fsmc.o(i.FSMC_PCCARDInit), (104 bytes).
    Removing stm32f4xx_fsmc.o(i.FSMC_PCCARDStructInit), (60 bytes).
    Removing stm32f4xx_gpio.o(.rev16_text), (4 bytes).
    Removing stm32f4xx_gpio.o(.revsh_text), (4 bytes).
    Removing stm32f4xx_gpio.o(i.GPIO_DeInit), (228 bytes).
    Removing stm32f4xx_gpio.o(i.GPIO_PinLockConfig), (24 bytes).
    Removing stm32f4xx_gpio.o(i.GPIO_ReadInputData), (6 bytes).
    Removing stm32f4xx_gpio.o(i.GPIO_ReadInputDataBit), (14 bytes).
    Removing stm32f4xx_gpio.o(i.GPIO_ReadOutputData), (6 bytes).
    Removing stm32f4xx_gpio.o(i.GPIO_ReadOutputDataBit), (14 bytes).
    Removing stm32f4xx_gpio.o(i.GPIO_ResetBits), (4 bytes).
    Removing stm32f4xx_gpio.o(i.GPIO_SetBits), (4 bytes).
    Removing stm32f4xx_gpio.o(i.GPIO_StructInit), (18 bytes).
    Removing stm32f4xx_gpio.o(i.GPIO_ToggleBits), (8 bytes).
    Removing stm32f4xx_gpio.o(i.GPIO_Write), (4 bytes).
    Removing stm32f4xx_gpio.o(i.GPIO_WriteBit), (10 bytes).
    Removing stm32f4xx_hash.o(.rev16_text), (4 bytes).
    Removing stm32f4xx_hash.o(.revsh_text), (4 bytes).
    Removing stm32f4xx_hash.o(i.HASH_ClearFlag), (12 bytes).
    Removing stm32f4xx_hash.o(i.HASH_ClearITPendingBit), (16 bytes).
    Removing stm32f4xx_hash.o(i.HASH_DMACmd), (28 bytes).
    Removing stm32f4xx_hash.o(i.HASH_DataIn), (12 bytes).
    Removing stm32f4xx_hash.o(i.HASH_DeInit), (22 bytes).
    Removing stm32f4xx_hash.o(i.HASH_GetDigest), (44 bytes).
    Removing stm32f4xx_hash.o(i.HASH_GetFlagStatus), (32 bytes).
    Removing stm32f4xx_hash.o(i.HASH_GetITStatus), (28 bytes).
    Removing stm32f4xx_hash.o(i.HASH_GetInFIFOWordsNbr), (16 bytes).
    Removing stm32f4xx_hash.o(i.HASH_ITConfig), (28 bytes).
    Removing stm32f4xx_hash.o(i.HASH_Init), (64 bytes).
    Removing stm32f4xx_hash.o(i.HASH_Reset), (16 bytes).
    Removing stm32f4xx_hash.o(i.HASH_RestoreContext), (64 bytes).
    Removing stm32f4xx_hash.o(i.HASH_SaveContext), (56 bytes).
    Removing stm32f4xx_hash.o(i.HASH_SetLastWordValidBitsNbr), (24 bytes).
    Removing stm32f4xx_hash.o(i.HASH_StartDigest), (16 bytes).
    Removing stm32f4xx_hash.o(i.HASH_StructInit), (12 bytes).
    Removing stm32f4xx_hash_md5.o(.rev16_text), (4 bytes).
    Removing stm32f4xx_hash_md5.o(.revsh_text), (4 bytes).
    Removing stm32f4xx_hash_md5.o(i.HASH_MD5), (158 bytes).
    Removing stm32f4xx_hash_md5.o(i.HMAC_MD5), (320 bytes).
    Removing stm32f4xx_hash_sha1.o(.rev16_text), (4 bytes).
    Removing stm32f4xx_hash_sha1.o(.revsh_text), (4 bytes).
    Removing stm32f4xx_hash_sha1.o(i.HASH_SHA1), (164 bytes).
    Removing stm32f4xx_hash_sha1.o(i.HMAC_SHA1), (326 bytes).
    Removing stm32f4xx_i2c.o(.rev16_text), (4 bytes).
    Removing stm32f4xx_i2c.o(.revsh_text), (4 bytes).
    Removing stm32f4xx_i2c.o(i.I2C_ARPCmd), (20 bytes).
    Removing stm32f4xx_i2c.o(i.I2C_AcknowledgeConfig), (20 bytes).
    Removing stm32f4xx_i2c.o(i.I2C_CalculatePEC), (20 bytes).
    Removing stm32f4xx_i2c.o(i.I2C_CheckEvent), (24 bytes).
    Removing stm32f4xx_i2c.o(i.I2C_ClearFlag), (6 bytes).
    Removing stm32f4xx_i2c.o(i.I2C_ClearITPendingBit), (6 bytes).
    Removing stm32f4xx_i2c.o(i.I2C_Cmd), (20 bytes).
    Removing stm32f4xx_i2c.o(i.I2C_DMACmd), (20 bytes).
    Removing stm32f4xx_i2c.o(i.I2C_DMALastTransferCmd), (20 bytes).
    Removing stm32f4xx_i2c.o(i.I2C_DeInit), (68 bytes).
    Removing stm32f4xx_i2c.o(i.I2C_DualAddressCmd), (20 bytes).
    Removing stm32f4xx_i2c.o(i.I2C_FastModeDutyCycleConfig), (22 bytes).
    Removing stm32f4xx_i2c.o(i.I2C_GeneralCallCmd), (20 bytes).
    Removing stm32f4xx_i2c.o(i.I2C_GenerateSTART), (20 bytes).
    Removing stm32f4xx_i2c.o(i.I2C_GenerateSTOP), (20 bytes).
    Removing stm32f4xx_i2c.o(i.I2C_GetFlagStatus), (42 bytes).
    Removing stm32f4xx_i2c.o(i.I2C_GetITStatus), (36 bytes).
    Removing stm32f4xx_i2c.o(i.I2C_GetLastEvent), (14 bytes).
    Removing stm32f4xx_i2c.o(i.I2C_GetPEC), (6 bytes).
    Removing stm32f4xx_i2c.o(i.I2C_ITConfig), (16 bytes).
    Removing stm32f4xx_i2c.o(i.I2C_Init), (180 bytes).
    Removing stm32f4xx_i2c.o(i.I2C_NACKPositionConfig), (22 bytes).
    Removing stm32f4xx_i2c.o(i.I2C_OwnAddress2Config), (16 bytes).
    Removing stm32f4xx_i2c.o(i.I2C_PECPositionConfig), (22 bytes).
    Removing stm32f4xx_i2c.o(i.I2C_ReadRegister), (10 bytes).
    Removing stm32f4xx_i2c.o(i.I2C_ReceiveData), (6 bytes).
    Removing stm32f4xx_i2c.o(i.I2C_SMBusAlertConfig), (22 bytes).
    Removing stm32f4xx_i2c.o(i.I2C_Send7bitAddress), (16 bytes).
    Removing stm32f4xx_i2c.o(i.I2C_SendData), (4 bytes).
    Removing stm32f4xx_i2c.o(i.I2C_SoftwareResetCmd), (20 bytes).
    Removing stm32f4xx_i2c.o(i.I2C_StretchClockCmd), (20 bytes).
    Removing stm32f4xx_i2c.o(i.I2C_StructInit), (28 bytes).
    Removing stm32f4xx_i2c.o(i.I2C_TransmitPEC), (20 bytes).
    Removing stm32f4xx_iwdg.o(.rev16_text), (4 bytes).
    Removing stm32f4xx_iwdg.o(.revsh_text), (4 bytes).
    Removing stm32f4xx_iwdg.o(i.IWDG_Enable), (16 bytes).
    Removing stm32f4xx_iwdg.o(i.IWDG_GetFlagStatus), (20 bytes).
    Removing stm32f4xx_iwdg.o(i.IWDG_ReloadCounter), (16 bytes).
    Removing stm32f4xx_iwdg.o(i.IWDG_SetPrescaler), (12 bytes).
    Removing stm32f4xx_iwdg.o(i.IWDG_SetReload), (12 bytes).
    Removing stm32f4xx_iwdg.o(i.IWDG_WriteAccessCmd), (12 bytes).
    Removing stm32f4xx_pwr.o(.rev16_text), (4 bytes).
    Removing stm32f4xx_pwr.o(.revsh_text), (4 bytes).
    Removing stm32f4xx_pwr.o(i.PWR_BackupAccessCmd), (12 bytes).
    Removing stm32f4xx_pwr.o(i.PWR_BackupRegulatorCmd), (12 bytes).
    Removing stm32f4xx_pwr.o(i.PWR_ClearFlag), (16 bytes).
    Removing stm32f4xx_pwr.o(i.PWR_DeInit), (24 bytes).
    Removing stm32f4xx_pwr.o(i.PWR_EnterSTANDBYMode), (40 bytes).
    Removing stm32f4xx_pwr.o(i.PWR_EnterSTOPMode), (52 bytes).
    Removing stm32f4xx_pwr.o(i.PWR_FlashPowerDownCmd), (12 bytes).
    Removing stm32f4xx_pwr.o(i.PWR_GetFlagStatus), (20 bytes).
    Removing stm32f4xx_pwr.o(i.PWR_HighPerformanceModeCmd), (12 bytes).
    Removing stm32f4xx_pwr.o(i.PWR_PVDCmd), (12 bytes).
    Removing stm32f4xx_pwr.o(i.PWR_PVDLevelConfig), (20 bytes).
    Removing stm32f4xx_pwr.o(i.PWR_WakeUpPinCmd), (12 bytes).
    Removing stm32f4xx_rcc.o(.rev16_text), (4 bytes).
    Removing stm32f4xx_rcc.o(.revsh_text), (4 bytes).
    Removing stm32f4xx_rcc.o(i.RCC_AHB1PeriphClockLPModeCmd), (24 bytes).
    Removing stm32f4xx_rcc.o(i.RCC_AHB1PeriphResetCmd), (24 bytes).
    Removing stm32f4xx_rcc.o(i.RCC_AHB2PeriphClockLPModeCmd), (24 bytes).
    Removing stm32f4xx_rcc.o(i.RCC_AHB2PeriphResetCmd), (24 bytes).
    Removing stm32f4xx_rcc.o(i.RCC_AHB3PeriphClockCmd), (24 bytes).
    Removing stm32f4xx_rcc.o(i.RCC_AHB3PeriphClockLPModeCmd), (24 bytes).
    Removing stm32f4xx_rcc.o(i.RCC_AHB3PeriphResetCmd), (24 bytes).
    Removing stm32f4xx_rcc.o(i.RCC_APB1PeriphClockLPModeCmd), (24 bytes).
    Removing stm32f4xx_rcc.o(i.RCC_APB2PeriphClockLPModeCmd), (24 bytes).
    Removing stm32f4xx_rcc.o(i.RCC_AdjustHSICalibrationValue), (20 bytes).
    Removing stm32f4xx_rcc.o(i.RCC_BackupResetCmd), (12 bytes).
    Removing stm32f4xx_rcc.o(i.RCC_ClearFlag), (16 bytes).
    Removing stm32f4xx_rcc.o(i.RCC_ClearITPendingBit), (12 bytes).
    Removing stm32f4xx_rcc.o(i.RCC_ClockSecuritySystemCmd), (12 bytes).
    Removing stm32f4xx_rcc.o(i.RCC_GetITStatus), (20 bytes).
    Removing stm32f4xx_rcc.o(i.RCC_GetSYSCLKSource), (16 bytes).
    Removing stm32f4xx_rcc.o(i.RCC_HSICmd), (12 bytes).
    Removing stm32f4xx_rcc.o(i.RCC_I2SCLKConfig), (12 bytes).
    Removing stm32f4xx_rcc.o(i.RCC_ITConfig), (24 bytes).
    Removing stm32f4xx_rcc.o(i.RCC_LSEConfig), (28 bytes).
    Removing stm32f4xx_rcc.o(i.RCC_LSICmd), (12 bytes).
    Removing stm32f4xx_rcc.o(i.RCC_MCO1Config), (20 bytes).
    Removing stm32f4xx_rcc.o(i.RCC_MCO2Config), (20 bytes).
    Removing stm32f4xx_rcc.o(i.RCC_PLLI2SCmd), (12 bytes).
    Removing stm32f4xx_rcc.o(i.RCC_PLLI2SConfig), (16 bytes).
    Removing stm32f4xx_rcc.o(i.RCC_RTCCLKCmd), (12 bytes).
    Removing stm32f4xx_rcc.o(i.RCC_RTCCLKConfig), (48 bytes).
    Removing stm32f4xx_rng.o(.rev16_text), (4 bytes).
    Removing stm32f4xx_rng.o(.revsh_text), (4 bytes).
    Removing stm32f4xx_rng.o(i.RNG_ClearFlag), (16 bytes).
    Removing stm32f4xx_rng.o(i.RNG_ClearITPendingBit), (16 bytes).
    Removing stm32f4xx_rng.o(i.RNG_DeInit), (22 bytes).
    Removing stm32f4xx_rng.o(i.RNG_GetFlagStatus), (20 bytes).
    Removing stm32f4xx_rng.o(i.RNG_GetITStatus), (20 bytes).
    Removing stm32f4xx_rng.o(i.RNG_GetRandomNumber), (12 bytes).
    Removing stm32f4xx_rng.o(i.RNG_ITConfig), (28 bytes).
    Removing stm32f4xx_rtc.o(.rev16_text), (4 bytes).
    Removing stm32f4xx_rtc.o(.revsh_text), (4 bytes).
    Removing stm32f4xx_rtc.o(i.RTC_AlarmCmd), (84 bytes).
    Removing stm32f4xx_rtc.o(i.RTC_AlarmStructInit), (20 bytes).
    Removing stm32f4xx_rtc.o(i.RTC_AlarmSubSecondConfig), (44 bytes).
    Removing stm32f4xx_rtc.o(i.RTC_Bcd2ToByte), (18 bytes).
    Removing stm32f4xx_rtc.o(i.RTC_BypassShadowCmd), (44 bytes).
    Removing stm32f4xx_rtc.o(i.RTC_ByteToBcd2), (24 bytes).
    Removing stm32f4xx_rtc.o(i.RTC_CalibOutputCmd), (44 bytes).
    Removing stm32f4xx_rtc.o(i.RTC_CalibOutputConfig), (40 bytes).
    Removing stm32f4xx_rtc.o(i.RTC_ClearFlag), (28 bytes).
    Removing stm32f4xx_rtc.o(i.RTC_ClearITPendingBit), (28 bytes).
    Removing stm32f4xx_rtc.o(i.RTC_CoarseCalibCmd), (60 bytes).
    Removing stm32f4xx_rtc.o(i.RTC_CoarseCalibConfig), (52 bytes).
    Removing stm32f4xx_rtc.o(i.RTC_DateStructInit), (14 bytes).
    Removing stm32f4xx_rtc.o(i.RTC_DayLightSavingConfig), (44 bytes).
    Removing stm32f4xx_rtc.o(i.RTC_DeInit), (152 bytes).
    Removing stm32f4xx_rtc.o(i.RTC_EnterInitMode), (60 bytes).
    Removing stm32f4xx_rtc.o(i.RTC_ExitInitMode), (16 bytes).
    Removing stm32f4xx_rtc.o(i.RTC_GetAlarm), (108 bytes).
    Removing stm32f4xx_rtc.o(i.RTC_GetAlarmSubSecond), (28 bytes).
    Removing stm32f4xx_rtc.o(i.RTC_GetDate), (72 bytes).
    Removing stm32f4xx_rtc.o(i.RTC_GetFlagStatus), (28 bytes).
    Removing stm32f4xx_rtc.o(i.RTC_GetITStatus), (56 bytes).
    Removing stm32f4xx_rtc.o(i.RTC_GetStoreOperation), (16 bytes).
    Removing stm32f4xx_rtc.o(i.RTC_GetSubSecond), (16 bytes).
    Removing stm32f4xx_rtc.o(i.RTC_GetTime), (76 bytes).
    Removing stm32f4xx_rtc.o(i.RTC_GetTimeStamp), (136 bytes).
    Removing stm32f4xx_rtc.o(i.RTC_GetTimeStampSubSecond), (12 bytes).
    Removing stm32f4xx_rtc.o(i.RTC_GetWakeUpCounter), (12 bytes).
    Removing stm32f4xx_rtc.o(i.RTC_ITConfig), (64 bytes).
    Removing stm32f4xx_rtc.o(i.RTC_Init), (80 bytes).
    Removing stm32f4xx_rtc.o(i.RTC_OutputConfig), (44 bytes).
    Removing stm32f4xx_rtc.o(i.RTC_OutputTypeConfig), (24 bytes).
    Removing stm32f4xx_rtc.o(i.RTC_ReadBackupRegister), (20 bytes).
    Removing stm32f4xx_rtc.o(i.RTC_RefClockCmd), (60 bytes).
    Removing stm32f4xx_rtc.o(i.RTC_SetAlarm), (164 bytes).
    Removing stm32f4xx_rtc.o(i.RTC_SetDate), (144 bytes).
    Removing stm32f4xx_rtc.o(i.RTC_SetTime), (152 bytes).
    Removing stm32f4xx_rtc.o(i.RTC_SetWakeUpCounter), (28 bytes).
    Removing stm32f4xx_rtc.o(i.RTC_SmoothCalibConfig), (76 bytes).
    Removing stm32f4xx_rtc.o(i.RTC_StructInit), (14 bytes).
    Removing stm32f4xx_rtc.o(i.RTC_SynchroShiftConfig), (88 bytes).
    Removing stm32f4xx_rtc.o(i.RTC_TamperCmd), (24 bytes).
    Removing stm32f4xx_rtc.o(i.RTC_TamperFilterConfig), (24 bytes).
    Removing stm32f4xx_rtc.o(i.RTC_TamperPinSelection), (24 bytes).
    Removing stm32f4xx_rtc.o(i.RTC_TamperPinsPrechargeDuration), (24 bytes).
    Removing stm32f4xx_rtc.o(i.RTC_TamperPullUpCmd), (28 bytes).
    Removing stm32f4xx_rtc.o(i.RTC_TamperSamplingFreqConfig), (24 bytes).
    Removing stm32f4xx_rtc.o(i.RTC_TamperTriggerConfig), (28 bytes).
    Removing stm32f4xx_rtc.o(i.RTC_TimeStampCmd), (48 bytes).
    Removing stm32f4xx_rtc.o(i.RTC_TimeStampOnTamperDetectionCmd), (28 bytes).
    Removing stm32f4xx_rtc.o(i.RTC_TimeStampPinSelection), (24 bytes).
    Removing stm32f4xx_rtc.o(i.RTC_TimeStructInit), (12 bytes).
    Removing stm32f4xx_rtc.o(i.RTC_WaitForSynchro), (76 bytes).
    Removing stm32f4xx_rtc.o(i.RTC_WakeUpClockConfig), (40 bytes).
    Removing stm32f4xx_rtc.o(i.RTC_WakeUpCmd), (88 bytes).
    Removing stm32f4xx_rtc.o(i.RTC_WriteBackupRegister), (20 bytes).
    Removing stm32f4xx_rtc.o(i.RTC_WriteProtectionCmd), (24 bytes).
    Removing stm32f4xx_sdio.o(.rev16_text), (4 bytes).
    Removing stm32f4xx_sdio.o(.revsh_text), (4 bytes).
    Removing stm32f4xx_sdio.o(i.SDIO_CEATAITCmd), (16 bytes).
    Removing stm32f4xx_sdio.o(i.SDIO_ClearFlag), (12 bytes).
    Removing stm32f4xx_sdio.o(i.SDIO_ClearITPendingBit), (12 bytes).
    Removing stm32f4xx_sdio.o(i.SDIO_ClockCmd), (12 bytes).
    Removing stm32f4xx_sdio.o(i.SDIO_CmdStructInit), (14 bytes).
    Removing stm32f4xx_sdio.o(i.SDIO_CommandCompletionCmd), (12 bytes).
    Removing stm32f4xx_sdio.o(i.SDIO_DMACmd), (12 bytes).
    Removing stm32f4xx_sdio.o(i.SDIO_DataConfig), (48 bytes).
    Removing stm32f4xx_sdio.o(i.SDIO_DataStructInit), (20 bytes).
    Removing stm32f4xx_sdio.o(i.SDIO_DeInit), (24 bytes).
    Removing stm32f4xx_sdio.o(i.SDIO_GetCommandResponse), (12 bytes).
    Removing stm32f4xx_sdio.o(i.SDIO_GetDataCounter), (12 bytes).
    Removing stm32f4xx_sdio.o(i.SDIO_GetFIFOCount), (12 bytes).
    Removing stm32f4xx_sdio.o(i.SDIO_GetFlagStatus), (20 bytes).
    Removing stm32f4xx_sdio.o(i.SDIO_GetITStatus), (20 bytes).
    Removing stm32f4xx_sdio.o(i.SDIO_GetPowerState), (16 bytes).
    Removing stm32f4xx_sdio.o(i.SDIO_GetResponse), (16 bytes).
    Removing stm32f4xx_sdio.o(i.SDIO_ITConfig), (24 bytes).
    Removing stm32f4xx_sdio.o(i.SDIO_Init), (44 bytes).
    Removing stm32f4xx_sdio.o(i.SDIO_ReadData), (12 bytes).
    Removing stm32f4xx_sdio.o(i.SDIO_SendCEATACmd), (12 bytes).
    Removing stm32f4xx_sdio.o(i.SDIO_SendCommand), (40 bytes).
    Removing stm32f4xx_sdio.o(i.SDIO_SendSDIOSuspendCmd), (12 bytes).
    Removing stm32f4xx_sdio.o(i.SDIO_SetPowerState), (12 bytes).
    Removing stm32f4xx_sdio.o(i.SDIO_SetSDIOOperation), (12 bytes).
    Removing stm32f4xx_sdio.o(i.SDIO_SetSDIOReadWaitMode), (12 bytes).
    Removing stm32f4xx_sdio.o(i.SDIO_StartSDIOReadWait), (12 bytes).
    Removing stm32f4xx_sdio.o(i.SDIO_StopSDIOReadWait), (12 bytes).
    Removing stm32f4xx_sdio.o(i.SDIO_StructInit), (16 bytes).
    Removing stm32f4xx_sdio.o(i.SDIO_WriteData), (12 bytes).
    Removing stm32f4xx_spi.o(.rev16_text), (4 bytes).
    Removing stm32f4xx_spi.o(.revsh_text), (4 bytes).
    Removing stm32f4xx_spi.o(i.I2S_Cmd), (20 bytes).
    Removing stm32f4xx_spi.o(i.I2S_FullDuplexConfig), (58 bytes).
    Removing stm32f4xx_spi.o(i.I2S_Init), (200 bytes).
    Removing stm32f4xx_spi.o(i.I2S_StructInit), (18 bytes).
    Removing stm32f4xx_spi.o(i.SPI_BiDirectionalLineConfig), (22 bytes).
    Removing stm32f4xx_spi.o(i.SPI_CalculateCRC), (20 bytes).
    Removing stm32f4xx_spi.o(i.SPI_DataSizeConfig), (16 bytes).
    Removing stm32f4xx_spi.o(i.SPI_GetCRC), (12 bytes).
    Removing stm32f4xx_spi.o(i.SPI_GetCRCPolynomial), (4 bytes).
    Removing stm32f4xx_spi.o(i.SPI_I2S_ClearFlag), (6 bytes).
    Removing stm32f4xx_spi.o(i.SPI_I2S_ClearITPendingBit), (14 bytes).
    Removing stm32f4xx_spi.o(i.SPI_I2S_GetFlagStatus), (14 bytes).
    Removing stm32f4xx_spi.o(i.SPI_I2S_GetITStatus), (42 bytes).
    Removing stm32f4xx_spi.o(i.SPI_I2S_ITConfig), (24 bytes).
    Removing stm32f4xx_spi.o(i.SPI_I2S_ReceiveData), (4 bytes).
    Removing stm32f4xx_spi.o(i.SPI_I2S_SendData), (4 bytes).
    Removing stm32f4xx_spi.o(i.SPI_StructInit), (24 bytes).
    Removing stm32f4xx_spi.o(i.SPI_TIModeCmd), (20 bytes).
    Removing stm32f4xx_spi.o(i.SPI_TransmitCRC), (10 bytes).
    Removing stm32f4xx_syscfg.o(.rev16_text), (4 bytes).
    Removing stm32f4xx_syscfg.o(.revsh_text), (4 bytes).
    Removing stm32f4xx_syscfg.o(i.SYSCFG_CompensationCellCmd), (12 bytes).
    Removing stm32f4xx_syscfg.o(i.SYSCFG_DeInit), (24 bytes).
    Removing stm32f4xx_syscfg.o(i.SYSCFG_ETH_MediaInterfaceConfig), (12 bytes).
    Removing stm32f4xx_syscfg.o(i.SYSCFG_GetCompensationCellStatus), (20 bytes).
    Removing stm32f4xx_syscfg.o(i.SYSCFG_MemoryRemapConfig), (12 bytes).
    Removing stm32f4xx_tim.o(.rev16_text), (4 bytes).
    Removing stm32f4xx_tim.o(.revsh_text), (4 bytes).
    Removing stm32f4xx_tim.o(i.TIM_ARRPreloadConfig), (20 bytes).
    Removing stm32f4xx_tim.o(i.TIM_CCPreloadControl), (20 bytes).
    Removing stm32f4xx_tim.o(i.TIM_CCxCmd), (22 bytes).
    Removing stm32f4xx_tim.o(i.TIM_CCxNCmd), (22 bytes).
    Removing stm32f4xx_tim.o(i.TIM_ClearFlag), (6 bytes).
    Removing stm32f4xx_tim.o(i.TIM_ClearOC1Ref), (12 bytes).
    Removing stm32f4xx_tim.o(i.TIM_ClearOC2Ref), (20 bytes).
    Removing stm32f4xx_tim.o(i.TIM_ClearOC3Ref), (12 bytes).
    Removing stm32f4xx_tim.o(i.TIM_ClearOC4Ref), (20 bytes).
    Removing stm32f4xx_tim.o(i.TIM_CounterModeConfig), (12 bytes).
    Removing stm32f4xx_tim.o(i.TIM_CtrlPWMOutputs), (22 bytes).
    Removing stm32f4xx_tim.o(i.TIM_DMAConfig), (8 bytes).
    Removing stm32f4xx_tim.o(i.TIM_DeInit), (336 bytes).
    Removing stm32f4xx_tim.o(i.TIM_ETRClockMode1Config), (18 bytes).
    Removing stm32f4xx_tim.o(i.TIM_ETRClockMode2Config), (18 bytes).
    Removing stm32f4xx_tim.o(i.TIM_ETRConfig), (24 bytes).
    Removing stm32f4xx_tim.o(i.TIM_EncoderInterfaceConfig), (50 bytes).
    Removing stm32f4xx_tim.o(i.TIM_ForcedOC1Config), (12 bytes).
    Removing stm32f4xx_tim.o(i.TIM_ForcedOC2Config), (20 bytes).
    Removing stm32f4xx_tim.o(i.TIM_ForcedOC3Config), (12 bytes).
    Removing stm32f4xx_tim.o(i.TIM_ForcedOC4Config), (20 bytes).
    Removing stm32f4xx_tim.o(i.TIM_GenerateEvent), (4 bytes).
    Removing stm32f4xx_tim.o(i.TIM_GetCapture1), (4 bytes).
    Removing stm32f4xx_tim.o(i.TIM_GetCapture2), (4 bytes).
    Removing stm32f4xx_tim.o(i.TIM_GetCapture3), (4 bytes).
    Removing stm32f4xx_tim.o(i.TIM_GetCapture4), (4 bytes).
    Removing stm32f4xx_tim.o(i.TIM_GetCounter), (4 bytes).
    Removing stm32f4xx_tim.o(i.TIM_GetFlagStatus), (14 bytes).
    Removing stm32f4xx_tim.o(i.TIM_GetITStatus), (24 bytes).
    Removing stm32f4xx_tim.o(i.TIM_GetPrescaler), (4 bytes).
    Removing stm32f4xx_tim.o(i.TIM_ICStructInit), (16 bytes).
    Removing stm32f4xx_tim.o(i.TIM_ITRxExternalClockConfig), (18 bytes).
    Removing stm32f4xx_tim.o(i.TIM_InternalClockConfig), (10 bytes).
    Removing stm32f4xx_tim.o(i.TIM_OC1FastConfig), (12 bytes).
    Removing stm32f4xx_tim.o(i.TIM_OC1NPolarityConfig), (12 bytes).
    Removing stm32f4xx_tim.o(i.TIM_OC1PolarityConfig), (12 bytes).
    Removing stm32f4xx_tim.o(i.TIM_OC2FastConfig), (20 bytes).
    Removing stm32f4xx_tim.o(i.TIM_OC2NPolarityConfig), (20 bytes).
    Removing stm32f4xx_tim.o(i.TIM_OC2PolarityConfig), (20 bytes).
    Removing stm32f4xx_tim.o(i.TIM_OC3FastConfig), (12 bytes).
    Removing stm32f4xx_tim.o(i.TIM_OC3NPolarityConfig), (20 bytes).
    Removing stm32f4xx_tim.o(i.TIM_OC3PolarityConfig), (20 bytes).
    Removing stm32f4xx_tim.o(i.TIM_OC4FastConfig), (20 bytes).
    Removing stm32f4xx_tim.o(i.TIM_OC4PolarityConfig), (20 bytes).
    Removing stm32f4xx_tim.o(i.TIM_OCStructInit), (20 bytes).
    Removing stm32f4xx_tim.o(i.TIM_PWMIConfig), (108 bytes).
    Removing stm32f4xx_tim.o(i.TIM_PrescalerConfig), (6 bytes).
    Removing stm32f4xx_tim.o(i.TIM_RemapConfig), (6 bytes).
    Removing stm32f4xx_tim.o(i.TIM_SelectCCDMA), (20 bytes).
    Removing stm32f4xx_tim.o(i.TIM_SelectCOM), (20 bytes).
    Removing stm32f4xx_tim.o(i.TIM_SelectHallSensor), (20 bytes).
    Removing stm32f4xx_tim.o(i.TIM_SelectOCxM), (74 bytes).
    Removing stm32f4xx_tim.o(i.TIM_SelectOnePulseMode), (16 bytes).
    Removing stm32f4xx_tim.o(i.TIM_SetAutoreload), (4 bytes).
    Removing stm32f4xx_tim.o(i.TIM_SetClockDivision), (16 bytes).
    Removing stm32f4xx_tim.o(i.TIM_SetCompare1), (4 bytes).
    Removing stm32f4xx_tim.o(i.TIM_SetCompare2), (4 bytes).
    Removing stm32f4xx_tim.o(i.TIM_SetCompare3), (4 bytes).
    Removing stm32f4xx_tim.o(i.TIM_SetCompare4), (4 bytes).
    Removing stm32f4xx_tim.o(i.TIM_SetCounter), (4 bytes).
    Removing stm32f4xx_tim.o(i.TIM_TIxExternalClockConfig), (46 bytes).
    Removing stm32f4xx_tim.o(i.TIM_UpdateDisableConfig), (20 bytes).
    Removing stm32f4xx_tim.o(i.TIM_UpdateRequestConfig), (20 bytes).
    Removing stm32f4xx_usart.o(.rev16_text), (4 bytes).
    Removing stm32f4xx_usart.o(.revsh_text), (4 bytes).
    Removing stm32f4xx_usart.o(i.USART_ClearFlag), (6 bytes).
    Removing stm32f4xx_usart.o(i.USART_ClearITPendingBit), (12 bytes).
    Removing stm32f4xx_usart.o(i.USART_ClockInit), (28 bytes).
    Removing stm32f4xx_usart.o(i.USART_ClockStructInit), (12 bytes).
    Removing stm32f4xx_usart.o(i.USART_DMACmd), (16 bytes).
    Removing stm32f4xx_usart.o(i.USART_DeInit), (140 bytes).
    Removing stm32f4xx_usart.o(i.USART_HalfDuplexCmd), (20 bytes).
    Removing stm32f4xx_usart.o(i.USART_IrDACmd), (20 bytes).
    Removing stm32f4xx_usart.o(i.USART_IrDAConfig), (16 bytes).
    Removing stm32f4xx_usart.o(i.USART_LINBreakDetectLengthConfig), (16 bytes).
    Removing stm32f4xx_usart.o(i.USART_LINCmd), (20 bytes).
    Removing stm32f4xx_usart.o(i.USART_OneBitMethodCmd), (20 bytes).
    Removing stm32f4xx_usart.o(i.USART_OverSampling8Cmd), (20 bytes).
    Removing stm32f4xx_usart.o(i.USART_ReceiverWakeUpCmd), (20 bytes).
    Removing stm32f4xx_usart.o(i.USART_SendBreak), (10 bytes).
    Removing stm32f4xx_usart.o(i.USART_SetAddress), (16 bytes).
    Removing stm32f4xx_usart.o(i.USART_SetGuardTime), (16 bytes).
    Removing stm32f4xx_usart.o(i.USART_SetPrescaler), (16 bytes).
    Removing stm32f4xx_usart.o(i.USART_SmartCardCmd), (20 bytes).
    Removing stm32f4xx_usart.o(i.USART_SmartCardNACKCmd), (20 bytes).
    Removing stm32f4xx_usart.o(i.USART_StructInit), (22 bytes).
    Removing stm32f4xx_usart.o(i.USART_WakeUpConfig), (16 bytes).
    Removing stm32f4xx_wwdg.o(.rev16_text), (4 bytes).
    Removing stm32f4xx_wwdg.o(.revsh_text), (4 bytes).
    Removing stm32f4xx_wwdg.o(i.WWDG_ClearFlag), (12 bytes).
    Removing stm32f4xx_wwdg.o(i.WWDG_DeInit), (24 bytes).
    Removing stm32f4xx_wwdg.o(i.WWDG_Enable), (16 bytes).
    Removing stm32f4xx_wwdg.o(i.WWDG_EnableIT), (12 bytes).
    Removing stm32f4xx_wwdg.o(i.WWDG_GetFlagStatus), (20 bytes).
    Removing stm32f4xx_wwdg.o(i.WWDG_SetCounter), (16 bytes).
    Removing stm32f4xx_wwdg.o(i.WWDG_SetPrescaler), (20 bytes).
    Removing stm32f4xx_wwdg.o(i.WWDG_SetWindowValue), (28 bytes).
    Removing hardware.o(.rev16_text), (4 bytes).
    Removing hardware.o(.revsh_text), (4 bytes).
    Removing interface.o(.rev16_text), (4 bytes).
    Removing interface.o(.revsh_text), (4 bytes).
    Removing interface.o(i.Echo_RS_Disable), (12 bytes).
    Removing interface.o(i.Echo_RS_Enable), (16 bytes).
    Removing interface.o(i.Echo_RS_isEnabled), (16 bytes).
    Removing interface.o(i.GPIO_RS_SetMode), (4 bytes).
    Removing interface.o(i.InterfaceInit), (2 bytes).
    Removing interface.o(i.Read_RS_Buf), (16 bytes).
    Removing interface.o(i.Read_RS_Flush), (12 bytes).
    Removing interface.o(i.Send_RS_BLK), (80 bytes).
    Removing interface.o(i.Send_RS_D), (12 bytes).
    Removing interface.o(i.Send_RS_End), (16 bytes).
    Removing interface.o(i.Send_RS_FREE), (16 bytes).
    Removing interface.o(i.Send_RS_Q), (12 bytes).
    Removing interface.o(i.Send_RS_Start), (52 bytes).
    Removing interface.o(i.Send_RS_W), (12 bytes).
    Removing interface.o(i.Send_RS_WaitFlush), (36 bytes).
    Removing interface.o(i.Send_RS_isBusy), (40 bytes).
    Removing interface.o(i.USART1uIntDisable), (12 bytes).
    Removing interface.o(i.USART1uIntEnable), (12 bytes).
    Removing interface.o(i.USART1uIntSet), (16 bytes).
    Removing interface.o(i.Uart_CFG), (92 bytes).
    Removing interface.o(.data), (1 bytes).
    Removing hdinterrupt.o(.rev16_text), (4 bytes).
    Removing hdinterrupt.o(.revsh_text), (4 bytes).
    Removing hdports.o(.rev16_text), (4 bytes).
    Removing hdports.o(.revsh_text), (4 bytes).
    Removing hdports.o(i.hdGPIO_Active), (98 bytes).
    Removing hdports.o(i.hdGPIO_Init), (104 bytes).
    Removing hdports.o(i.hdGPIO_SetGetMode), (28 bytes).
    Removing hdtimers.o(.rev16_text), (4 bytes).
    Removing hdtimers.o(.revsh_text), (4 bytes).
    Removing hdtimers.o(i.CortexTimerDeltaProcDO), (84 bytes).
    Removing hdtimers.o(i.DelayNOP), (12 bytes).
    Removing hdtimers.o(i.DelayNOP_CLK), (20 bytes).
    Removing hdtimers.o(i.Sleep), (42 bytes).
    Removing hdtimers.o(i.SysTick_Interrupt), (2 bytes).
    Removing hdtimers.o(i.Timer_1mcs_CounterUpdate), (100 bytes).
    Removing hdtimers.o(i.Timer_CounterProc), (4 bytes).
    Removing hdtimers.o(i.WaitMCS_Check), (26 bytes).
    Removing hdtimers.o(i.WaitMCS_CheckContinue), (50 bytes).
    Removing hdtimers.o(i.WaitMCS_Delta), (14 bytes).
    Removing hdtimers.o(i.WaitMCS_Start), (16 bytes).
    Removing hdtimers.o(i.WaitMCS_Wait), (32 bytes).
    Removing hdtimers.o(i.WaitMS_Check), (26 bytes).
    Removing hdtimers.o(i.WaitMS_Delta), (14 bytes).
    Removing hdtimers.o(i.WaitMS_Start), (16 bytes).
    Removing hdtimers.o(i.WaitMS_Wait), (32 bytes).
    Removing hdtimers.o(i.isTimerCompareOverflow), (12 bytes).
    Removing hdtimers.o(.bss), (32 bytes).
    Removing hdtimers.o(.data), (4 bytes).
    Removing hdtimers.o(.data), (4 bytes).
    Removing hdtimers.o(.data), (4 bytes).
    Removing hdtimers.o(.data), (4 bytes).
    Removing hdtimers.o(.data), (4 bytes).
    Removing dneg.o(.text), (6 bytes).

757 unused section(s) (total 25553 bytes) removed from the image.

==============================================================================

Adding Veneers to the image

    Adding TT veneer (10 bytes, Long) for call to 'EXT_DoAyBusReg' from chipay_interrupt.o(ROMCODE).
    Adding TT veneer (10 bytes, Long) for call to 'toupper' from chipay_interrupt.o(ROMCODE).
    Adding TT veneer (10 bytes, Long) for call to 'strcmp' from chipay_interrupt.o(ROMCODE).
    Adding TT veneer (10 bytes, Long) for call to 'strlen' from chipay_interrupt.o(ROMCODE).
    Adding TT veneer (10 bytes, Long) for call to 'strcat' from chipay_interrupt.o(ROMCODE).
    Adding TT veneer (10 bytes, Long) for call to '__aeabi_uldivmod' from chipay_interrupt.o(ROMCODE).
    Adding TT veneer (10 bytes, Long) for call to 'EXT_DoAyBusUpdate' from chipay_interrupt.o(i.EXTI15_10_IRQHandler).
    Adding TT veneer (10 bytes, Long) for call to '__aeabi_memcpy4' from chipay_digitalplayer.o(i.PerFrCalc).
    Adding TT veneer (10 bytes, Long) for call to '__aeabi_f2d' from chipay_digitalplayer.o(i.PerFrCalc).
    Adding TT veneer (10 bytes, Long) for call to '__hardfp_pow' from chipay_digitalplayer.o(i.PerFrCalc).
    Adding TT veneer (10 bytes, Long) for call to '__aeabi_dmul' from chipay_digitalplayer.o(i.PerFrCalc).
    Adding TT veneer (10 bytes, Long) for call to '__aeabi_d2f' from chipay_digitalplayer.o(i.PerFrCalc).
    Adding TT veneer (10 bytes, Long) for call to '__aeabi_ui2d' from chipay_digitalplayer.o(i.PerFrCalc).
    Adding TT veneer (10 bytes, Long) for call to '__aeabi_dsub' from chipay_digitalplayer.o(i.PerFrCalc).
    Adding TT veneer (10 bytes, Long) for call to '__aeabi_dadd' from chipay_digitalplayer.o(i.PerFrCalc).
    Adding TT veneer (10 bytes, Long) for call to '__aeabi_ddiv' from chipay_digitalplayer.o(i.PerFrCalc).
    Adding TT veneer (10 bytes, Long) for call to '__aeabi_memcpy' from memoryallocator.o(i.ShowMalBaseRec).
    Adding TT veneer (10 bytes, Long) for call to '__aeabi_cdcmple' from chipay_digitalplayer.o(i.XM_Player_STEP).
    Adding TT veneer (10 bytes, Long) for call to '__aeabi_cdrcmple' from chipay_digitalplayer.o(i.XM_Player_STEP).
    Adding TT veneer (10 bytes, Long) for call to '__aeabi_d2uiz' from chipay_digitalplayer.o(i.XM_Player_STEP).
    Adding TT veneer (10 bytes, Long) for call to '__aeabi_memclr' from bootflasherf4.o(i.bflImageStart).
    Adding TT veneer (10 bytes, Long) for call to '__aeabi_memclr4' from chipay_digitalplayer.o(i.cayDigPlayerExtractLine).
    Adding TT veneer (10 bytes, Long) for call to '__aeabi_memset' from chipay_digitalsample.o(i.cayDigSmpAllocateInstrumentCreatBlank).
    Adding TT veneer (10 bytes, Long) for call to '__aeabi_d2ulz' from chipay_digitalsample.o(i.cayDigSmpCalcFreq).
    Adding TT veneer (10 bytes, Long) for call to 'ChipAY_ArmInit' from main.o(i.main).
    Adding TT veneer (10 bytes, Long) for call to 'ChipAY_Init' from main.o(i.main).
    Adding TT veneer (10 bytes, Long) for call to 'chMain' from main.o(i.main).
    Adding TT veneer (10 bytes, Long) for call to 'malloc' from memoryallocator.o(i.memalInit).
    Adding TT veneer (10 bytes, Long) for call to 'prcAYRprcR0E' from chipay_ws_process.o(i.wsPoolTransMode).
    Adding TT veneer (10 bytes, Long) for call to 'cayDigPlayerStreamGet' from chipay_hardware.o(RAMCODE).
    Adding TT veneer (10 bytes, Long) for call to 'TIM_ClearITPendingBit' from chipay_hardware.o(RAMCODE).
    Adding TT veneer (10 bytes, Long) for call to 'RCC_DeInit' from chipay_main.o(RAMCODE).
    Adding TT veneer (10 bytes, Long) for call to 'ListProcADD' from chipay_main.o(RAMCODE).
    Adding TT veneer (10 bytes, Long) for call to 'DoProc' from chipay_main.o(RAMCODE).
    Adding TT veneer (10 bytes, Long) for call to 'WaitMS_CheckContinue' from chipay_main.o(RAMCODE).
    Adding TT veneer (10 bytes, Long) for call to 'cayStrmFlagGet' from chipay_interrupt.o(ccmram).
    Adding TT veneer (10 bytes, Long) for call to 'cayStrmFifoOUwrFree' from chipay_interrupt.o(ccmram).
    Adding TT veneer (10 bytes, Long) for call to 'cayStrmFifoINwrSize' from chipay_interrupt.o(ccmram).
    Adding TT veneer (10 bytes, Long) for call to 'Read_RS_Size' from chipay_interrupt.o(ccmram).
    Adding TT veneer (10 bytes, Long) for call to 'Read_RS_Byte' from chipay_interrupt.o(ccmram).
    Adding TT veneer (10 bytes, Long) for call to 'Send_RS_FREEBusy' from chipay_interrupt.o(ccmram).
    Adding TT veneer (10 bytes, Long) for call to 'Timer_1ms_CounterUpdate' from chipay_interrupt.o(ccmram).
    Adding TT veneer (10 bytes, Long) for call to 'Send_RS_B' from chipay_interrupt.o(ccmram).
    Adding TT veneer (10 bytes, Long) for call to 'cayStrmClear' from chipay_interrupt.o(ccmram).
    Adding TT veneer (10 bytes, Long) for call to 'cayStrmCmdSet' from chipay_interrupt.o(ccmram).
    Adding TT veneer (10 bytes, Long) for call to 'cayStrmFifoOUwrB' from chipay_interrupt.o(ccmram).
    Adding TT veneer (10 bytes, Long) for call to 'cayStrmFlagSet' from chipay_interrupt.o(ccmram).

47 Veneer(s) (total 470 bytes) added to the image.

==============================================================================

Image Symbol Table

    Local Symbols

    Symbol Name                              Value     Ov Type        Size  Object(Section)

    ../clib/../cmprslib/zerorunl2.c          0x00000000   Number         0  __dczerorl2.o ABSOLUTE
    ../clib/microlib/ctype/toupper.c         0x00000000   Number         0  toupper.o ABSOLUTE
    ../clib/microlib/division.c              0x00000000   Number         0  uldiv.o ABSOLUTE
    ../clib/microlib/errno.c                 0x00000000   Number         0  errno.o ABSOLUTE
    ../clib/microlib/init/entry.s            0x00000000   Number         0  entry7a.o ABSOLUTE
    ../clib/microlib/init/entry.s            0x00000000   Number         0  entry11b.o ABSOLUTE
    ../clib/microlib/init/entry.s            0x00000000   Number         0  entry.o ABSOLUTE
    ../clib/microlib/init/entry.s            0x00000000   Number         0  entry11a.o ABSOLUTE
    ../clib/microlib/init/entry.s            0x00000000   Number         0  entry2.o ABSOLUTE
    ../clib/microlib/init/entry.s            0x00000000   Number         0  entry5.o ABSOLUTE
    ../clib/microlib/init/entry.s            0x00000000   Number         0  entry10b.o ABSOLUTE
    ../clib/microlib/init/entry.s            0x00000000   Number         0  entry10a.o ABSOLUTE
    ../clib/microlib/init/entry.s            0x00000000   Number         0  entry9b.o ABSOLUTE
    ../clib/microlib/init/entry.s            0x00000000   Number         0  entry9a.o ABSOLUTE
    ../clib/microlib/init/entry.s            0x00000000   Number         0  entry8b.o ABSOLUTE
    ../clib/microlib/init/entry.s            0x00000000   Number         0  entry8a.o ABSOLUTE
    ../clib/microlib/init/entry.s            0x00000000   Number         0  entry7b.o ABSOLUTE
    ../clib/microlib/longlong.c              0x00000000   Number         0  llsshr.o ABSOLUTE
    ../clib/microlib/longlong.c              0x00000000   Number         0  llushr.o ABSOLUTE
    ../clib/microlib/longlong.c              0x00000000   Number         0  llshl.o ABSOLUTE
    ../clib/microlib/malloc/malloc.c         0x00000000   Number         0  mallocr.o ABSOLUTE
    ../clib/microlib/malloc/malloc.c         0x00000000   Number         0  malloca.o ABSOLUTE
    ../clib/microlib/malloc/malloc.c         0x00000000   Number         0  malloc.o ABSOLUTE
    ../clib/microlib/malloc/malloc.c         0x00000000   Number         0  mallocra.o ABSOLUTE
    ../clib/microlib/malloc/mvars.c          0x00000000   Number         0  mvars.o ABSOLUTE
    ../clib/microlib/string/memchr.c         0x00000000   Number         0  memchr.o ABSOLUTE
    ../clib/microlib/string/memcpy.c         0x00000000   Number         0  memcpya.o ABSOLUTE
    ../clib/microlib/string/memcpy.c         0x00000000   Number         0  memcpyb.o ABSOLUTE
    ../clib/microlib/string/memset.c         0x00000000   Number         0  memseta.o ABSOLUTE
    ../clib/microlib/string/strcat.c         0x00000000   Number         0  strcat.o ABSOLUTE
    ../clib/microlib/string/strcmp.c         0x00000000   Number         0  strcmp.o ABSOLUTE
    ../clib/microlib/string/strlen.c         0x00000000   Number         0  strlen.o ABSOLUTE
    ../clib/microlib/stubs.s                 0x00000000   Number         0  iusefp.o ABSOLUTE
    ../fplib/microlib/d2f.c                  0x00000000   Number         0  d2f.o ABSOLUTE
    ../fplib/microlib/f2d.c                  0x00000000   Number         0  f2d.o ABSOLUTE
    ../fplib/microlib/fpadd.c                0x00000000   Number         0  dadd.o ABSOLUTE
    ../fplib/microlib/fpdiv.c                0x00000000   Number         0  ddiv.o ABSOLUTE
    ../fplib/microlib/fpepilogue.c           0x00000000   Number         0  depilogue.o ABSOLUTE
    ../fplib/microlib/fpepilogue.c           0x00000000   Number         0  fepilogue.o ABSOLUTE
    ../fplib/microlib/fpfix.c                0x00000000   Number         0  dfixul.o ABSOLUTE
    ../fplib/microlib/fpfix.c                0x00000000   Number         0  dfixui.o ABSOLUTE
    ../fplib/microlib/fpflt.c                0x00000000   Number         0  dflti.o ABSOLUTE
    ../fplib/microlib/fpflt.c                0x00000000   Number         0  dfltui.o ABSOLUTE
    ../fplib/microlib/fpmul.c                0x00000000   Number         0  dmul.o ABSOLUTE
    ../fplib/microlib/fpneg.c                0x00000000   Number         0  dneg.o ABSOLUTE
    ../fplib/microlib/fpscalb.c              0x00000000   Number         0  dscalb.o ABSOLUTE
    ../fplib/microlib/fpsqrt.c               0x00000000   Number         0  dsqrt.o ABSOLUTE
    ../mathlib/dunder.c                      0x00000000   Number         0  dunder.o ABSOLUTE
    ../mathlib/fabs.c                        0x00000000   Number         0  fabs.o ABSOLUTE
    ../mathlib/fpclassify.c                  0x00000000   Number         0  fpclassify.o ABSOLUTE
    ../mathlib/poly.c                        0x00000000   Number         0  poly.o ABSOLUTE
    ../mathlib/pow.c                         0x00000000   Number         0  pow.o ABSOLUTE
    ../mathlib/pow.c                         0x00000000   Number         0  pow_x.o ABSOLUTE
    ../mathlib/qnan.c                        0x00000000   Number         0  qnan.o ABSOLUTE
    ../mathlib/sqrt.c                        0x00000000   Number         0  sqrt_x.o ABSOLUTE
    ../mathlib/sqrt.c                        0x00000000   Number         0  sqrt.o ABSOLUTE
    ..\SRC\BootFlasherF4.c                   0x00000000   Number         0  bootflasherf4.o ABSOLUTE
    ..\SRC\LIB\src\misc.c                    0x00000000   Number         0  misc.o ABSOLUTE
    ..\SRC\LIB\src\stm32f4xx_adc.c           0x00000000   Number         0  stm32f4xx_adc.o ABSOLUTE
    ..\SRC\LIB\src\stm32f4xx_can.c           0x00000000   Number         0  stm32f4xx_can.o ABSOLUTE
    ..\SRC\LIB\src\stm32f4xx_crc.c           0x00000000   Number         0  stm32f4xx_crc.o ABSOLUTE
    ..\SRC\LIB\src\stm32f4xx_cryp.c          0x00000000   Number         0  stm32f4xx_cryp.o ABSOLUTE
    ..\SRC\LIB\src\stm32f4xx_cryp_aes.c      0x00000000   Number         0  stm32f4xx_cryp_aes.o ABSOLUTE
    ..\SRC\LIB\src\stm32f4xx_cryp_des.c      0x00000000   Number         0  stm32f4xx_cryp_des.o ABSOLUTE
    ..\SRC\LIB\src\stm32f4xx_cryp_tdes.c     0x00000000   Number         0  stm32f4xx_cryp_tdes.o ABSOLUTE
    ..\SRC\LIB\src\stm32f4xx_dac.c           0x00000000   Number         0  stm32f4xx_dac.o ABSOLUTE
    ..\SRC\LIB\src\stm32f4xx_dbgmcu.c        0x00000000   Number         0  stm32f4xx_dbgmcu.o ABSOLUTE
    ..\SRC\LIB\src\stm32f4xx_dcmi.c          0x00000000   Number         0  stm32f4xx_dcmi.o ABSOLUTE
    ..\SRC\LIB\src\stm32f4xx_dma.c           0x00000000   Number         0  stm32f4xx_dma.o ABSOLUTE
    ..\SRC\LIB\src\stm32f4xx_exti.c          0x00000000   Number         0  stm32f4xx_exti.o ABSOLUTE
    ..\SRC\LIB\src\stm32f4xx_flash.c         0x00000000   Number         0  stm32f4xx_flash.o ABSOLUTE
    ..\SRC\LIB\src\stm32f4xx_fsmc.c          0x00000000   Number         0  stm32f4xx_fsmc.o ABSOLUTE
    ..\SRC\LIB\src\stm32f4xx_gpio.c          0x00000000   Number         0  stm32f4xx_gpio.o ABSOLUTE
    ..\SRC\LIB\src\stm32f4xx_hash.c          0x00000000   Number         0  stm32f4xx_hash.o ABSOLUTE
    ..\SRC\LIB\src\stm32f4xx_hash_md5.c      0x00000000   Number         0  stm32f4xx_hash_md5.o ABSOLUTE
    ..\SRC\LIB\src\stm32f4xx_hash_sha1.c     0x00000000   Number         0  stm32f4xx_hash_sha1.o ABSOLUTE
    ..\SRC\LIB\src\stm32f4xx_i2c.c           0x00000000   Number         0  stm32f4xx_i2c.o ABSOLUTE
    ..\SRC\LIB\src\stm32f4xx_iwdg.c          0x00000000   Number         0  stm32f4xx_iwdg.o ABSOLUTE
    ..\SRC\LIB\src\stm32f4xx_pwr.c           0x00000000   Number         0  stm32f4xx_pwr.o ABSOLUTE
    ..\SRC\LIB\src\stm32f4xx_rcc.c           0x00000000   Number         0  stm32f4xx_rcc.o ABSOLUTE
    ..\SRC\LIB\src\stm32f4xx_rng.c           0x00000000   Number         0  stm32f4xx_rng.o ABSOLUTE
    ..\SRC\LIB\src\stm32f4xx_rtc.c           0x00000000   Number         0  stm32f4xx_rtc.o ABSOLUTE
    ..\SRC\LIB\src\stm32f4xx_sdio.c          0x00000000   Number         0  stm32f4xx_sdio.o ABSOLUTE
    ..\SRC\LIB\src\stm32f4xx_spi.c           0x00000000   Number         0  stm32f4xx_spi.o ABSOLUTE
    ..\SRC\LIB\src\stm32f4xx_syscfg.c        0x00000000   Number         0  stm32f4xx_syscfg.o ABSOLUTE
    ..\SRC\LIB\src\stm32f4xx_tim.c           0x00000000   Number         0  stm32f4xx_tim.o ABSOLUTE
    ..\SRC\LIB\src\stm32f4xx_usart.c         0x00000000   Number         0  stm32f4xx_usart.o ABSOLUTE
    ..\SRC\LIB\src\stm32f4xx_wwdg.c          0x00000000   Number         0  stm32f4xx_wwdg.o ABSOLUTE
    ..\SRC\core_UID.c                        0x00000000   Number         0  core_uid.o ABSOLUTE
    ..\SRC\cortex_rb_sys.c                   0x00000000   Number         0  cortex_rb_sys.o ABSOLUTE
    ..\SRC\rb_base64m.c                      0x00000000   Number         0  rb_base64m.o ABSOLUTE
    ..\SRC\rb_crc16.c                        0x00000000   Number         0  rb_crc16.o ABSOLUTE
    ..\SRC\rb_fifo.c                         0x00000000   Number         0  rb_fifo.o ABSOLUTE
    ..\SRC\rb_util.c                         0x00000000   Number         0  rb_util.o ABSOLUTE
    ..\\SRC\\BootFlasherF4.c                 0x00000000   Number         0  bootflasherf4.o ABSOLUTE
    ..\\SRC\\LIB\\src\\misc.c                0x00000000   Number         0  misc.o ABSOLUTE
    ..\\SRC\\LIB\\src\\stm32f4xx_adc.c       0x00000000   Number         0  stm32f4xx_adc.o ABSOLUTE
    ..\\SRC\\LIB\\src\\stm32f4xx_can.c       0x00000000   Number         0  stm32f4xx_can.o ABSOLUTE
    ..\\SRC\\LIB\\src\\stm32f4xx_crc.c       0x00000000   Number         0  stm32f4xx_crc.o ABSOLUTE
    ..\\SRC\\LIB\\src\\stm32f4xx_cryp.c      0x00000000   Number         0  stm32f4xx_cryp.o ABSOLUTE
    ..\\SRC\\LIB\\src\\stm32f4xx_cryp_aes.c  0x00000000   Number         0  stm32f4xx_cryp_aes.o ABSOLUTE
    ..\\SRC\\LIB\\src\\stm32f4xx_cryp_des.c  0x00000000   Number         0  stm32f4xx_cryp_des.o ABSOLUTE
    ..\\SRC\\LIB\\src\\stm32f4xx_cryp_tdes.c 0x00000000   Number         0  stm32f4xx_cryp_tdes.o ABSOLUTE
    ..\\SRC\\LIB\\src\\stm32f4xx_dac.c       0x00000000   Number         0  stm32f4xx_dac.o ABSOLUTE
    ..\\SRC\\LIB\\src\\stm32f4xx_dbgmcu.c    0x00000000   Number         0  stm32f4xx_dbgmcu.o ABSOLUTE
    ..\\SRC\\LIB\\src\\stm32f4xx_dcmi.c      0x00000000   Number         0  stm32f4xx_dcmi.o ABSOLUTE
    ..\\SRC\\LIB\\src\\stm32f4xx_dma.c       0x00000000   Number         0  stm32f4xx_dma.o ABSOLUTE
    ..\\SRC\\LIB\\src\\stm32f4xx_exti.c      0x00000000   Number         0  stm32f4xx_exti.o ABSOLUTE
    ..\\SRC\\LIB\\src\\stm32f4xx_flash.c     0x00000000   Number         0  stm32f4xx_flash.o ABSOLUTE
    ..\\SRC\\LIB\\src\\stm32f4xx_fsmc.c      0x00000000   Number         0  stm32f4xx_fsmc.o ABSOLUTE
    ..\\SRC\\LIB\\src\\stm32f4xx_gpio.c      0x00000000   Number         0  stm32f4xx_gpio.o ABSOLUTE
    ..\\SRC\\LIB\\src\\stm32f4xx_hash.c      0x00000000   Number         0  stm32f4xx_hash.o ABSOLUTE
    ..\\SRC\\LIB\\src\\stm32f4xx_hash_md5.c  0x00000000   Number         0  stm32f4xx_hash_md5.o ABSOLUTE
    ..\\SRC\\LIB\\src\\stm32f4xx_hash_sha1.c 0x00000000   Number         0  stm32f4xx_hash_sha1.o ABSOLUTE
    ..\\SRC\\LIB\\src\\stm32f4xx_i2c.c       0x00000000   Number         0  stm32f4xx_i2c.o ABSOLUTE
    ..\\SRC\\LIB\\src\\stm32f4xx_iwdg.c      0x00000000   Number         0  stm32f4xx_iwdg.o ABSOLUTE
    ..\\SRC\\LIB\\src\\stm32f4xx_pwr.c       0x00000000   Number         0  stm32f4xx_pwr.o ABSOLUTE
    ..\\SRC\\LIB\\src\\stm32f4xx_rcc.c       0x00000000   Number         0  stm32f4xx_rcc.o ABSOLUTE
    ..\\SRC\\LIB\\src\\stm32f4xx_rng.c       0x00000000   Number         0  stm32f4xx_rng.o ABSOLUTE
    ..\\SRC\\LIB\\src\\stm32f4xx_rtc.c       0x00000000   Number         0  stm32f4xx_rtc.o ABSOLUTE
    ..\\SRC\\LIB\\src\\stm32f4xx_sdio.c      0x00000000   Number         0  stm32f4xx_sdio.o ABSOLUTE
    ..\\SRC\\LIB\\src\\stm32f4xx_spi.c       0x00000000   Number         0  stm32f4xx_spi.o ABSOLUTE
    ..\\SRC\\LIB\\src\\stm32f4xx_syscfg.c    0x00000000   Number         0  stm32f4xx_syscfg.o ABSOLUTE
    ..\\SRC\\LIB\\src\\stm32f4xx_tim.c       0x00000000   Number         0  stm32f4xx_tim.o ABSOLUTE
    ..\\SRC\\LIB\\src\\stm32f4xx_usart.c     0x00000000   Number         0  stm32f4xx_usart.o ABSOLUTE
    ..\\SRC\\LIB\\src\\stm32f4xx_wwdg.c      0x00000000   Number         0  stm32f4xx_wwdg.o ABSOLUTE
    ..\\SRC\\core_UID.c                      0x00000000   Number         0  core_uid.o ABSOLUTE
    ..\\SRC\\cortex_rb_sys.c                 0x00000000   Number         0  cortex_rb_sys.o ABSOLUTE
    ..\\SRC\\rb_base64m.c                    0x00000000   Number         0  rb_base64m.o ABSOLUTE
    ..\\SRC\\rb_crc16.c                      0x00000000   Number         0  rb_crc16.o ABSOLUTE
    ..\\SRC\\rb_fifo.c                       0x00000000   Number         0  rb_fifo.o ABSOLUTE
    ..\\SRC\\rb_util.c                       0x00000000   Number         0  rb_util.o ABSOLUTE
    SRC\ChipAY.c                             0x00000000   Number         0  chipay.o ABSOLUTE
    SRC\ChipAY_BootFlasher.c                 0x00000000   Number         0  chipay_bootflasher.o ABSOLUTE
    SRC\ChipAY_DigitalPlayer.c               0x00000000   Number         0  chipay_digitalplayer.o ABSOLUTE
    SRC\ChipAY_DigitalSample.c               0x00000000   Number         0  chipay_digitalsample.o ABSOLUTE
    SRC\ChipAY_Hardware.c                    0x00000000   Number         0  chipay_hardware.o ABSOLUTE
    SRC\ChipAY_Interrupt.c                   0x00000000   Number         0  chipay_interrupt.o ABSOLUTE
    SRC\ChipAY_Main.c                        0x00000000   Number         0  chipay_main.o ABSOLUTE
    SRC\ChipAY_StreamData.c                  0x00000000   Number         0  chipay_streamdata.o ABSOLUTE
    SRC\ChipAY_Test.c                        0x00000000   Number         0  chipay_test.o ABSOLUTE
    SRC\ChipAY_WS_Process.c                  0x00000000   Number         0  chipay_ws_process.o ABSOLUTE
    SRC\ChipAY_WildSound.c                   0x00000000   Number         0  chipay_wildsound.o ABSOLUTE
    SRC\HARDWARE\hardware.c                  0x00000000   Number         0  hardware.o ABSOLUTE
    SRC\HARDWARE\hdinterrupt.c               0x00000000   Number         0  hdinterrupt.o ABSOLUTE
    SRC\HARDWARE\hdports.c                   0x00000000   Number         0  hdports.o ABSOLUTE
    SRC\HARDWARE\hdtimers.c                  0x00000000   Number         0  hdtimers.o ABSOLUTE
    SRC\HARDWARE\interface.c                 0x00000000   Number         0  interface.o ABSOLUTE
    SRC\MemoryAllocator.c                    0x00000000   Number         0  memoryallocator.o ABSOLUTE
    SRC\TestCase.c                           0x00000000   Number         0  testcase.o ABSOLUTE
    SRC\\ChipAY.c                            0x00000000   Number         0  chipay.o ABSOLUTE
    SRC\\ChipAY_BootFlasher.c                0x00000000   Number         0  chipay_bootflasher.o ABSOLUTE
    SRC\\ChipAY_DigitalPlayer.c              0x00000000   Number         0  chipay_digitalplayer.o ABSOLUTE
    SRC\\ChipAY_DigitalSample.c              0x00000000   Number         0  chipay_digitalsample.o ABSOLUTE
    SRC\\ChipAY_Hardware.c                   0x00000000   Number         0  chipay_hardware.o ABSOLUTE
    SRC\\ChipAY_Interrupt.c                  0x00000000   Number         0  chipay_interrupt.o ABSOLUTE
    SRC\\ChipAY_Main.c                       0x00000000   Number         0  chipay_main.o ABSOLUTE
    SRC\\ChipAY_StreamData.c                 0x00000000   Number         0  chipay_streamdata.o ABSOLUTE
    SRC\\ChipAY_Test.c                       0x00000000   Number         0  chipay_test.o ABSOLUTE
    SRC\\ChipAY_WS_Process.c                 0x00000000   Number         0  chipay_ws_process.o ABSOLUTE
    SRC\\ChipAY_WildSound.c                  0x00000000   Number         0  chipay_wildsound.o ABSOLUTE
    SRC\\HARDWARE\\hardware.c                0x00000000   Number         0  hardware.o ABSOLUTE
    SRC\\HARDWARE\\hdinterrupt.c             0x00000000   Number         0  hdinterrupt.o ABSOLUTE
    SRC\\HARDWARE\\hdports.c                 0x00000000   Number         0  hdports.o ABSOLUTE
    SRC\\HARDWARE\\hdtimers.c                0x00000000   Number         0  hdtimers.o ABSOLUTE
    SRC\\HARDWARE\\interface.c               0x00000000   Number         0  interface.o ABSOLUTE
    SRC\\MemoryAllocator.c                   0x00000000   Number         0  memoryallocator.o ABSOLUTE
    SRC\\TestCase.c                          0x00000000   Number         0  testcase.o ABSOLUTE
    SRC\\main.c                              0x00000000   Number         0  main.o ABSOLUTE
    SRC\\process.c                           0x00000000   Number         0  process.o ABSOLUTE
    SRC\main.c                               0x00000000   Number         0  main.o ABSOLUTE
    SRC\process.c                            0x00000000   Number         0  process.o ABSOLUTE
    cdcmple.s                                0x00000000   Number         0  cdcmple.o ABSOLUTE
    cdrcmple.s                               0x00000000   Number         0  cdrcmple.o ABSOLUTE
    dc.s                                     0x00000000   Number         0  dc.o ABSOLUTE
    handlers.s                               0x00000000   Number         0  handlers.o ABSOLUTE
    init.s                                   0x00000000   Number         0  init.o ABSOLUTE
    startup_stm32f40_41xxx.s                 0x00000000   Number         0  startup_stm32f40_41xxx.o ABSOLUTE
    RESET                                    0x08000000   Section      392  startup_stm32f40_41xxx.o(RESET)
    .ARM.Collect$$$$00000000                 0x08000188   Section        0  entry.o(.ARM.Collect$$$$00000000)
    .ARM.Collect$$$$00000001                 0x08000188   Section        4  entry2.o(.ARM.Collect$$$$00000001)
    .ARM.Collect$$$$00000004                 0x0800018c   Section        4  entry5.o(.ARM.Collect$$$$00000004)
    .ARM.Collect$$$$00000008                 0x08000190   Section        0  entry7b.o(.ARM.Collect$$$$00000008)
    .ARM.Collect$$$$0000000A                 0x08000190   Section        0  entry8b.o(.ARM.Collect$$$$0000000A)
    .ARM.Collect$$$$0000000B                 0x08000190   Section        8  entry9a.o(.ARM.Collect$$$$0000000B)
    .ARM.Collect$$$$0000000D                 0x08000198   Section        0  entry10a.o(.ARM.Collect$$$$0000000D)
    .ARM.Collect$$$$0000000F                 0x08000198   Section        0  entry11a.o(.ARM.Collect$$$$0000000F)
    .ARM.Collect$$$$00002712                 0x08000198   Section        4  entry2.o(.ARM.Collect$$$$00002712)
    __lit__00000000                          0x08000198   Data           4  entry2.o(.ARM.Collect$$$$00002712)
    .emb_text                                0x0800019c   Section       40  bootflasherf4.o(.emb_text)
    $v0                                      0x0800019c   Number         0  bootflasherf4.o(.emb_text)
    .text                                    0x080001c4   Section       36  startup_stm32f40_41xxx.o(.text)
    $v0                                      0x080001c4   Number         0  startup_stm32f40_41xxx.o(.text)
    .text                                    0x080001e8   Section       36  init.o(.text)
    ROMCODE                                  0x0800020c   Section        0  chipay_interrupt.o(ROMCODE)
    i.CallProc                               0x08000a5a   Section        0  process.o(i.CallProc)
    i.DAC_Cmd                                0x08000a80   Section        0  stm32f4xx_dac.o(i.DAC_Cmd)
    i.DAC_DMACmd                             0x08000a98   Section        0  stm32f4xx_dac.o(i.DAC_DMACmd)
    i.DAC_Init                               0x08000ab0   Section        0  stm32f4xx_dac.o(i.DAC_Init)
    i.DMA_ClearFlag                          0x08000ad8   Section        0  stm32f4xx_dma.o(i.DMA_ClearFlag)
    i.DMA_Cmd                                0x08000b04   Section        0  stm32f4xx_dma.o(i.DMA_Cmd)
    i.DMA_ITConfig                           0x08000b18   Section        0  stm32f4xx_dma.o(i.DMA_ITConfig)
    i.DMA_Init                               0x08000b4c   Section        0  stm32f4xx_dma.o(i.DMA_Init)
    i.DelayMCS                               0x08000ba0   Section        0  hdtimers.o(i.DelayMCS)
    i.DelayMS                                0x08000c30   Section        0  hdtimers.o(i.DelayMS)
    i.DoProc                                 0x08000ccc   Section        0  process.o(i.DoProc)
    i.EXTI15_10_IRQHandler                   0x08000d4c   Section        0  chipay_interrupt.o(i.EXTI15_10_IRQHandler)
    i.EXTI2_IRQHandler                       0x08000dc4   Section        0  chipay_interrupt.o(i.EXTI2_IRQHandler)
    i.EXTI9_5_IRQHandler                     0x08000e10   Section        0  chipay_interrupt.o(i.EXTI9_5_IRQHandler)
    i.EXTI_ClearITPendingBit                 0x08000e88   Section        0  stm32f4xx_exti.o(i.EXTI_ClearITPendingBit)
    i.EXTI_Init                              0x08000e94   Section        0  stm32f4xx_exti.o(i.EXTI_Init)
    i.FLASH_ClearFlag                        0x08000f04   Section        0  stm32f4xx_flash.o(i.FLASH_ClearFlag)
    i.FLASH_DataCacheCmd                     0x08000f10   Section        0  stm32f4xx_flash.o(i.FLASH_DataCacheCmd)
    i.FLASH_DataCacheReset                   0x08000f2c   Section        0  stm32f4xx_flash.o(i.FLASH_DataCacheReset)
    i.FLASH_ErasePage                        0x08000f3c   Section        0  bootflasherf4.o(i.FLASH_ErasePage)
    i.FLASH_EraseSector                      0x08000f54   Section        0  stm32f4xx_flash.o(i.FLASH_EraseSector)
    i.FLASH_GetStatus                        0x08000fc0   Section        0  stm32f4xx_flash.o(i.FLASH_GetStatus)
    i.FLASH_InstructionCacheCmd              0x08000ff4   Section        0  stm32f4xx_flash.o(i.FLASH_InstructionCacheCmd)
    i.FLASH_InstructionCacheReset            0x08001010   Section        0  stm32f4xx_flash.o(i.FLASH_InstructionCacheReset)
    i.FLASH_Lock                             0x08001020   Section        0  stm32f4xx_flash.o(i.FLASH_Lock)
    i.FLASH_OB_Unlock                        0x08001030   Section        0  stm32f4xx_flash.o(i.FLASH_OB_Unlock)
    i.FLASH_PrefetchBufferCmd                0x08001054   Section        0  stm32f4xx_flash.o(i.FLASH_PrefetchBufferCmd)
    i.FLASH_ProgramHalfWord                  0x08001070   Section        0  stm32f4xx_flash.o(i.FLASH_ProgramHalfWord)
    i.FLASH_SetLatency                       0x080010ac   Section        0  stm32f4xx_flash.o(i.FLASH_SetLatency)
    i.FLASH_Unlock                           0x080010b8   Section        0  stm32f4xx_flash.o(i.FLASH_Unlock)
    i.FLASH_WaitForLastOperation             0x080010dc   Section        0  stm32f4xx_flash.o(i.FLASH_WaitForLastOperation)
    i.GPIO_Init                              0x080010fa   Section        0  stm32f4xx_gpio.o(i.GPIO_Init)
    i.GPIO_PinAFConfig                       0x0800119c   Section        0  stm32f4xx_gpio.o(i.GPIO_PinAFConfig)
    i.Init                                   0x080011bc   Section        0  hardware.o(i.Init)
    i.ListProcADD                            0x080011ec   Section        0  process.o(i.ListProcADD)
    i.ListProcRoll                           0x08001204   Section        0  process.o(i.ListProcRoll)
    i.NVIC_Init                              0x0800122c   Section        0  misc.o(i.NVIC_Init)
    i.PerFrCalc                              0x08001290   Section        0  chipay_digitalplayer.o(i.PerFrCalc)
    i.RCC_AHB1PeriphClockCmd                 0x080015a4   Section        0  stm32f4xx_rcc.o(i.RCC_AHB1PeriphClockCmd)
    i.RCC_AHB2PeriphClockCmd                 0x080015bc   Section        0  stm32f4xx_rcc.o(i.RCC_AHB2PeriphClockCmd)
    i.RCC_APB1PeriphClockCmd                 0x080015d4   Section        0  stm32f4xx_rcc.o(i.RCC_APB1PeriphClockCmd)
    i.RCC_APB1PeriphResetCmd                 0x080015ec   Section        0  stm32f4xx_rcc.o(i.RCC_APB1PeriphResetCmd)
    i.RCC_APB2PeriphClockCmd                 0x08001604   Section        0  stm32f4xx_rcc.o(i.RCC_APB2PeriphClockCmd)
    i.RCC_APB2PeriphResetCmd                 0x0800161c   Section        0  stm32f4xx_rcc.o(i.RCC_APB2PeriphResetCmd)
    i.RCC_Configuration                      0x08001634   Section        0  hardware.o(i.RCC_Configuration)
    i.RCC_DeInit                             0x08001774   Section        0  stm32f4xx_rcc.o(i.RCC_DeInit)
    i.RCC_GetClocksFreq                      0x080017b0   Section        0  stm32f4xx_rcc.o(i.RCC_GetClocksFreq)
    i.RCC_GetFlagStatus                      0x08001834   Section        0  stm32f4xx_rcc.o(i.RCC_GetFlagStatus)
    i.RCC_HCLKConfig                         0x08001868   Section        0  stm32f4xx_rcc.o(i.RCC_HCLKConfig)
    i.RCC_HSEConfig                          0x0800187c   Section        0  stm32f4xx_rcc.o(i.RCC_HSEConfig)
    i.RCC_PCLK1Config                        0x0800188c   Section        0  stm32f4xx_rcc.o(i.RCC_PCLK1Config)
    i.RCC_PCLK2Config                        0x080018a0   Section        0  stm32f4xx_rcc.o(i.RCC_PCLK2Config)
    i.RCC_PLLCmd                             0x080018b4   Section        0  stm32f4xx_rcc.o(i.RCC_PLLCmd)
    i.RCC_PLLConfig                          0x080018c0   Section        0  stm32f4xx_rcc.o(i.RCC_PLLConfig)
    i.RCC_SYSCLKConfig                       0x080018e8   Section        0  stm32f4xx_rcc.o(i.RCC_SYSCLKConfig)
    i.RCC_WaitForHSEStartUp                  0x080018fc   Section        0  stm32f4xx_rcc.o(i.RCC_WaitForHSEStartUp)
    i.RNG_Cmd                                0x08001928   Section        0  stm32f4xx_rng.o(i.RNG_Cmd)
    i.RNG_Config                             0x08001944   Section        0  main.o(i.RNG_Config)
    i.Read_RS_Byte                           0x08001958   Section        0  interface.o(i.Read_RS_Byte)
    i.Read_RS_Size                           0x08001978   Section        0  interface.o(i.Read_RS_Size)
    i.ReturnProc                             0x08001984   Section        0  process.o(i.ReturnProc)
    i.SPI_Cmd                                0x0800199e   Section        0  stm32f4xx_spi.o(i.SPI_Cmd)
    i.SPI_I2S_DMACmd                         0x080019b2   Section        0  stm32f4xx_spi.o(i.SPI_I2S_DMACmd)
    i.SPI_I2S_DeInit                         0x080019c4   Section        0  stm32f4xx_spi.o(i.SPI_I2S_DeInit)
    i.SPI_Init                               0x08001a18   Section        0  stm32f4xx_spi.o(i.SPI_Init)
    i.SPI_NSSInternalSoftwareConfig          0x08001a50   Section        0  stm32f4xx_spi.o(i.SPI_NSSInternalSoftwareConfig)
    i.SPI_SSOutputCmd                        0x08001a68   Section        0  stm32f4xx_spi.o(i.SPI_SSOutputCmd)
    i.SYSCFG_EXTILineConfig                  0x08001a7c   Section        0  stm32f4xx_syscfg.o(i.SYSCFG_EXTILineConfig)
    i.SelectInitGPIO                         0x08001aa4   Section        0  hardware.o(i.SelectInitGPIO)
    i.Send_RS_B                              0x08001c20   Section        0  interface.o(i.Send_RS_B)
    i.Send_RS_Buf                            0x08001c50   Section        0  interface.o(i.Send_RS_Buf)
    i.Send_RS_Byte                           0x08001cf8   Section        0  interface.o(i.Send_RS_Byte)
    i.Send_RS_DEC                            0x08001d04   Section        0  interface.o(i.Send_RS_DEC)
    i.Send_RS_FREEBusy                       0x08001d10   Section        0  interface.o(i.Send_RS_FREEBusy)
    i.Send_RS_HEX                            0x08001d44   Section        0  interface.o(i.Send_RS_HEX)
    i.Send_RS_Hold                           0x08001d54   Section        0  interface.o(i.Send_RS_Hold)
    i.Send_RS_String                         0x08001dc8   Section        0  interface.o(i.Send_RS_String)
    i.SetupSPI                               0x08001ddc   Section        0  hardware.o(i.SetupSPI)
    i.ShowMalBaseRec                         0x08001fd8   Section        0  memoryallocator.o(i.ShowMalBaseRec)
    i.ShowStartInfo                          0x08002064   Section        0  main.o(i.ShowStartInfo)
    i.SystemInit                             0x08002110   Section        0  hardware.o(i.SystemInit)
    i.TI1_Config                             0x0800212c   Section        0  stm32f4xx_tim.o(i.TI1_Config)
    TI1_Config                               0x0800212d   Thumb Code    46  stm32f4xx_tim.o(i.TI1_Config)
    i.TI2_Config                             0x0800215a   Section        0  stm32f4xx_tim.o(i.TI2_Config)
    TI2_Config                               0x0800215b   Thumb Code    54  stm32f4xx_tim.o(i.TI2_Config)
    i.TIM_BDTRConfig                         0x08002190   Section        0  stm32f4xx_tim.o(i.TIM_BDTRConfig)
    i.TIM_BDTRStructInit                     0x080021b2   Section        0  stm32f4xx_tim.o(i.TIM_BDTRStructInit)
    i.TIM_ClearITPendingBit                  0x080021c4   Section        0  stm32f4xx_tim.o(i.TIM_ClearITPendingBit)
    i.TIM_Cmd                                0x080021ca   Section        0  stm32f4xx_tim.o(i.TIM_Cmd)
    i.TIM_DMACmd                             0x080021de   Section        0  stm32f4xx_tim.o(i.TIM_DMACmd)
    i.TIM_ICInit                             0x080021ee   Section        0  stm32f4xx_tim.o(i.TIM_ICInit)
    i.TIM_ITConfig                           0x0800229a   Section        0  stm32f4xx_tim.o(i.TIM_ITConfig)
    i.TIM_OC1Init                            0x080022ac   Section        0  stm32f4xx_tim.o(i.TIM_OC1Init)
    i.TIM_OC1PreloadConfig                   0x0800230c   Section        0  stm32f4xx_tim.o(i.TIM_OC1PreloadConfig)
    i.TIM_OC2Init                            0x08002318   Section        0  stm32f4xx_tim.o(i.TIM_OC2Init)
    i.TIM_OC2PreloadConfig                   0x08002398   Section        0  stm32f4xx_tim.o(i.TIM_OC2PreloadConfig)
    i.TIM_OC3Init                            0x080023ac   Section        0  stm32f4xx_tim.o(i.TIM_OC3Init)
    i.TIM_OC3PreloadConfig                   0x08002428   Section        0  stm32f4xx_tim.o(i.TIM_OC3PreloadConfig)
    i.TIM_OC4Init                            0x08002434   Section        0  stm32f4xx_tim.o(i.TIM_OC4Init)
    i.TIM_OC4PreloadConfig                   0x08002494   Section        0  stm32f4xx_tim.o(i.TIM_OC4PreloadConfig)
    i.TIM_SelectInputTrigger                 0x080024a8   Section        0  stm32f4xx_tim.o(i.TIM_SelectInputTrigger)
    i.TIM_SelectMasterSlaveMode              0x080024b4   Section        0  stm32f4xx_tim.o(i.TIM_SelectMasterSlaveMode)
    i.TIM_SelectOutputTrigger                0x080024c4   Section        0  stm32f4xx_tim.o(i.TIM_SelectOutputTrigger)
    i.TIM_SelectSlaveMode                    0x080024d4   Section        0  stm32f4xx_tim.o(i.TIM_SelectSlaveMode)
    i.TIM_SetIC1Prescaler                    0x080024e4   Section        0  stm32f4xx_tim.o(i.TIM_SetIC1Prescaler)
    i.TIM_SetIC2Prescaler                    0x080024f4   Section        0  stm32f4xx_tim.o(i.TIM_SetIC2Prescaler)
    i.TIM_SetIC3Prescaler                    0x0800250c   Section        0  stm32f4xx_tim.o(i.TIM_SetIC3Prescaler)
    i.TIM_SetIC4Prescaler                    0x0800251c   Section        0  stm32f4xx_tim.o(i.TIM_SetIC4Prescaler)
    i.TIM_TimeBaseInit                       0x08002534   Section        0  stm32f4xx_tim.o(i.TIM_TimeBaseInit)
    i.TIM_TimeBaseStructInit                 0x080025b0   Section        0  stm32f4xx_tim.o(i.TIM_TimeBaseStructInit)
    i.TimerCounterUpdate                     0x080025c4   Section        0  hdtimers.o(i.TimerCounterUpdate)
    i.Timer_1ms_CounterUpdate                0x08002628   Section        0  hdtimers.o(i.Timer_1ms_CounterUpdate)
    i.USART1_GPIO                            0x0800268c   Section        0  interface.o(i.USART1_GPIO)
    i.USART1_IRQHandler                      0x0800273c   Section        0  interface.o(i.USART1_IRQHandler)
    i.USART_Cmd                              0x080027bc   Section        0  stm32f4xx_usart.o(i.USART_Cmd)
    i.USART_GetFlagStatus                    0x080027d0   Section        0  stm32f4xx_usart.o(i.USART_GetFlagStatus)
    i.USART_GetITStatus                      0x080027de   Section        0  stm32f4xx_usart.o(i.USART_GetITStatus)
    i.USART_ITConfig                         0x0800281c   Section        0  stm32f4xx_usart.o(i.USART_ITConfig)
    i.USART_Init                             0x0800284c   Section        0  stm32f4xx_usart.o(i.USART_Init)
    i.USART_ReceiveData                      0x08002904   Section        0  stm32f4xx_usart.o(i.USART_ReceiveData)
    i.USART_SendData                         0x0800290c   Section        0  stm32f4xx_usart.o(i.USART_SendData)
    i.Uart_RS_Init                           0x08002914   Section        0  interface.o(i.Uart_RS_Init)
    i.WaitMS_CheckContinue                   0x080029e4   Section        0  hdtimers.o(i.WaitMS_CheckContinue)
    i.XM_ChekSongEND                         0x08002a16   Section        0  chipay_digitalplayer.o(i.XM_ChekSongEND)
    i.XM_Player_STEP                         0x08002a50   Section        0  chipay_digitalplayer.o(i.XM_Player_STEP)
    i.__scatterload_copy                     0x0800390c   Section       14  handlers.o(i.__scatterload_copy)
    i.__scatterload_null                     0x0800391a   Section        2  handlers.o(i.__scatterload_null)
    i.__scatterload_zeroinit                 0x0800391c   Section       14  handlers.o(i.__scatterload_zeroinit)
    i.bflBootBlockAddr                       0x0800392c   Section        0  bootflasherf4.o(i.bflBootBlockAddr)
    i.bflBootBlockPTR                        0x08003954   Section        0  bootflasherf4.o(i.bflBootBlockPTR)
    i.bflBootBlocks                          0x08003960   Section        0  bootflasherf4.o(i.bflBootBlocks)
    i.bflBootBlocksGetCRC                    0x080039c0   Section        0  bootflasherf4.o(i.bflBootBlocksGetCRC)
    i.bflBootCheckNeedFlashing               0x080039e8   Section        0  bootflasherf4.o(i.bflBootCheckNeedFlashing)
    i.bflBootExtremalExecuteBlock            0x08003a14   Section        0  bootflasherf4.o(i.bflBootExtremalExecuteBlock)
    i.bflBootExtremalExecuteBlockType        0x08003a2e   Section        0  bootflasherf4.o(i.bflBootExtremalExecuteBlockType)
    i.bflBootFindByType                      0x08003a4a   Section        0  bootflasherf4.o(i.bflBootFindByType)
    i.bflBootFlashDisable                    0x08003a78   Section        0  bootflasherf4.o(i.bflBootFlashDisable)
    i.bflFlashErase                          0x08003a8e   Section        0  bootflasherf4.o(i.bflFlashErase)
    i.bflFlashEraseAlignBLK                  0x08003ab0   Section        0  bootflasherf4.o(i.bflFlashEraseAlignBLK)
    i.bflFlashSectorCfg                      0x08003b02   Section        0  bootflasherf4.o(i.bflFlashSectorCfg)
    i.bflFlashWriteBlock                     0x08003b54   Section        0  bootflasherf4.o(i.bflFlashWriteBlock)
    i.bflImageAddBlock                       0x08003bc2   Section        0  bootflasherf4.o(i.bflImageAddBlock)
    i.bflImageAddBlockA                      0x08003be4   Section        0  bootflasherf4.o(i.bflImageAddBlockA)
    i.bflImageFinish                         0x08003c9c   Section        0  bootflasherf4.o(i.bflImageFinish)
    i.bflImageStart                          0x08003d00   Section        0  bootflasherf4.o(i.bflImageStart)
    i.cayDigPlayerExtractLine                0x08003d2c   Section        0  chipay_digitalplayer.o(i.cayDigPlayerExtractLine)
    i.cayDigPlayerExtractLineShow            0x08003e5c   Section        0  chipay_digitalplayer.o(i.cayDigPlayerExtractLineShow)
    i.cayDigPlayerGetPatDataSTR              0x08003ed0   Section        0  chipay_digitalplayer.o(i.cayDigPlayerGetPatDataSTR)
    i.cayDigPlayerGoToPatLine                0x08003ffc   Section        0  chipay_digitalplayer.o(i.cayDigPlayerGoToPatLine)
    i.cayDigPlayerGoToPosLine                0x0800405a   Section        0  chipay_digitalplayer.o(i.cayDigPlayerGoToPosLine)
    i.cayDigPlayerInit                       0x0800408e   Section        0  chipay_digitalplayer.o(i.cayDigPlayerInit)
    i.cayDigPlayerPool                       0x08004168   Section        0  chipay_digitalplayer.o(i.cayDigPlayerPool)
    i.cayDigPlayerSTEP                       0x08004240   Section        0  chipay_digitalplayer.o(i.cayDigPlayerSTEP)
    i.cayDigPlayerSetSamplePos               0x0800431c   Section        0  chipay_digitalplayer.o(i.cayDigPlayerSetSamplePos)
    i.cayDigPlayerStreamFree                 0x0800434c   Section        0  chipay_digitalplayer.o(i.cayDigPlayerStreamFree)
    i.cayDigPlayerStreamGet                  0x08004364   Section        0  chipay_digitalplayer.o(i.cayDigPlayerStreamGet)
    i.cayDigPlayerStreamSize                 0x08004396   Section        0  chipay_digitalplayer.o(i.cayDigPlayerStreamSize)
    i.cayDigPlayerStreamWRStep               0x080043a8   Section        0  chipay_digitalplayer.o(i.cayDigPlayerStreamWRStep)
    i.cayDigSmpAllocateInstrument            0x080043b8   Section        0  chipay_digitalsample.o(i.cayDigSmpAllocateInstrument)
    i.cayDigSmpAllocateInstrumentCreatBlank  0x0800447e   Section        0  chipay_digitalsample.o(i.cayDigSmpAllocateInstrumentCreatBlank)
    i.cayDigSmpCalcFreq                      0x080044d4   Section        0  chipay_digitalsample.o(i.cayDigSmpCalcFreq)
    i.cayDigSmpGenerateBUF                   0x08004584   Section        0  chipay_digitalsample.o(i.cayDigSmpGenerateBUF)
    i.cayDigSmpInstrumentAddByte             0x080046f2   Section        0  chipay_digitalsample.o(i.cayDigSmpInstrumentAddByte)
    i.cayDigSmpSetPos                        0x08004742   Section        0  chipay_digitalsample.o(i.cayDigSmpSetPos)
    i.cayStrmCacheDescMemParsingINSH         0x08004774   Section        0  chipay_streamdata.o(i.cayStrmCacheDescMemParsingINSH)
    i.cayStrmCacheDescMemParsingNOP          0x08004838   Section        0  chipay_streamdata.o(i.cayStrmCacheDescMemParsingNOP)
    i.cayStrmCacheDescMemParsingTRACK        0x0800483c   Section        0  chipay_streamdata.o(i.cayStrmCacheDescMemParsingTRACK)
    i.cayStrmClear                           0x080048e0   Section        0  chipay_streamdata.o(i.cayStrmClear)
    i.cayStrmCmdSet                          0x080048f8   Section        0  chipay_streamdata.o(i.cayStrmCmdSet)
    i.cayStrmFifoINwrSize                    0x08004900   Section        0  chipay_streamdata.o(i.cayStrmFifoINwrSize)
    i.cayStrmFifoOUwrB                       0x08004906   Section        0  chipay_streamdata.o(i.cayStrmFifoOUwrB)
    i.cayStrmFifoOUwrFree                    0x08004926   Section        0  chipay_streamdata.o(i.cayStrmFifoOUwrFree)
    i.cayStrmFlagGet                         0x08004932   Section        0  chipay_streamdata.o(i.cayStrmFlagGet)
    i.cayStrmFlagSet                         0x08004936   Section        0  chipay_streamdata.o(i.cayStrmFlagSet)
    i.cayStrmPool                            0x08004940   Section        0  chipay_streamdata.o(i.cayStrmPool)
    i.chayBootFlashDo                        0x08005054   Section        0  chipay_bootflasher.o(i.chayBootFlashDo)
    i.chipAY_DacSetup                        0x0800513c   Section        0  chipay_hardware.o(i.chipAY_DacSetup)
    i.chipAY_HardwareInit                    0x0800526c   Section        0  chipay_hardware.o(i.chipAY_HardwareInit)
    i.chipAY_TimerFreq                       0x08005340   Section        0  chipay_hardware.o(i.chipAY_TimerFreq)
    i.chipAY_TimerRCC                        0x08005380   Section        0  chipay_hardware.o(i.chipAY_TimerRCC)
    i.chipAY_TimerSetup                      0x080054bc   Section        0  chipay_hardware.o(i.chipAY_TimerSetup)
    i.chipAY_TimerSetupX                     0x080055ac   Section        0  chipay_hardware.o(i.chipAY_TimerSetupX)
    i.crc16_blk                              0x080056e4   Section        0  rb_crc16.o(i.crc16_blk)
    i.crc16_blk_CCITT                        0x08005710   Section        0  rb_crc16.o(i.crc16_blk_CCITT)
    i.flashaddr                              0x0800573c   Section        0  bootflasherf4.o(i.flashaddr)
    i.flashsize                              0x08005744   Section        0  bootflasherf4.o(i.flashsize)
    i.flashtop                               0x08005750   Section        0  bootflasherf4.o(i.flashtop)
    i.hdGPIO_Setup                           0x08005760   Section        0  hdports.o(i.hdGPIO_Setup)
    i.hdIntSetVector                         0x08005858   Section        0  hdinterrupt.o(i.hdIntSetVector)
    i.hdIntSwitchInterruptToRAM              0x08005868   Section        0  hdinterrupt.o(i.hdIntSwitchInterruptToRAM)
    i.isTimerCompareOverflowX                0x080058a0   Section        0  hdtimers.o(i.isTimerCompareOverflowX)
    i.main                                   0x080058bc   Section        0  main.o(i.main)
    i.memalAllocateBaseListSize              0x0800591c   Section        0  memoryallocator.o(i.memalAllocateBaseListSize)
    i.memalBaseListByAddr                    0x08005978   Section        0  memoryallocator.o(i.memalBaseListByAddr)
    i.memalDescAllocate                      0x080059b4   Section        0  memoryallocator.o(i.memalDescAllocate)
    i.memalDescFree                          0x08005a0c   Section        0  memoryallocator.o(i.memalDescFree)
    i.memalDescFreeSize                      0x08005a5c   Section        0  memoryallocator.o(i.memalDescFreeSize)
    i.memalDescGetAddr                       0x08005a70   Section        0  memoryallocator.o(i.memalDescGetAddr)
    i.memalDescInit                          0x08005aa8   Section        0  memoryallocator.o(i.memalDescInit)
    i.memalDescSetFlag                       0x08005ae8   Section        0  memoryallocator.o(i.memalDescSetFlag)
    i.memalEraseAllData                      0x08005b1c   Section        0  memoryallocator.o(i.memalEraseAllData)
    i.memalFillBLK                           0x08005bb0   Section        0  memoryallocator.o(i.memalFillBLK)
    i.memalFindBaseListSize                  0x08005bec   Section        0  memoryallocator.o(i.memalFindBaseListSize)
    i.memalInit                              0x08005c34   Section        0  memoryallocator.o(i.memalInit)
    i.memalMemDescAllocate                   0x08005e54   Section        0  memoryallocator.o(i.memalMemDescAllocate)
    i.memalMemPackCut                        0x08005ee8   Section        0  memoryallocator.o(i.memalMemPackCut)
    i.memalWriteBLK                          0x08005fd8   Section        0  memoryallocator.o(i.memalWriteBLK)
    i.rb_IntToHEX                            0x080060a0   Section        0  rb_util.o(i.rb_IntToHEX)
    i.rb_IntToProc                           0x080060a8   Section        0  rb_util.o(i.rb_IntToProc)
    i.rb_IntToStr                            0x0800625c   Section        0  rb_util.o(i.rb_IntToStr)
    i.rb_fifo_clear                          0x08006264   Section        0  rb_fifo.o(i.rb_fifo_clear)
    i.rb_fifo_flush                          0x08006270   Section        0  rb_fifo.o(i.rb_fifo_flush)
    i.rb_fifo_free                           0x08006294   Section        0  rb_fifo.o(i.rb_fifo_free)
    i.rb_fifo_rd                             0x080062a4   Section        0  rb_fifo.o(i.rb_fifo_rd)
    i.rb_fifo_rd_D                           0x080062c2   Section        0  rb_fifo.o(i.rb_fifo_rd_D)
    i.rb_fifo_size                           0x08006324   Section        0  rb_fifo.o(i.rb_fifo_size)
    i.rb_fifo_wr                             0x08006330   Section        0  rb_fifo.o(i.rb_fifo_wr)
    i.rb_fifo_wr_D                           0x08006354   Section        0  rb_fifo.o(i.rb_fifo_wr_D)
    i.rb_fifo_wr_blk                         0x08006362   Section        0  rb_fifo.o(i.rb_fifo_wr_blk)
    i.wsPoolDigitalPlayer                    0x080064a4   Section        0  chipay_ws_process.o(i.wsPoolDigitalPlayer)
    i.wsPoolFlasherMode                      0x080064cc   Section        0  chipay_ws_process.o(i.wsPoolFlasherMode)
    i.wsPoolStreamMode                       0x080064e4   Section        0  chipay_ws_process.o(i.wsPoolStreamMode)
    i.wsPoolTransMode                        0x080064f4   Section        0  chipay_ws_process.o(i.wsPoolTransMode)
    .constdata                               0x080066e8   Section      192  chipay_digitalplayer.o(.constdata)
    .constdata                               0x080067a8   Section     5744  chipay_bootflasher.o(.constdata)
    .constdata                               0x08007e18   Section       32  chipay_hardware.o(.constdata)
    .constdata                               0x08007e38   Section       86  bootflasherf4.o(.constdata)
    .conststring                             0x08007e8e   Section       48  chipay_interrupt.o(.conststring)
    .text                                    0x20000000   Section        0  uldiv.o(.text)
    .text                                    0x20000062   Section        0  toupper.o(.text)
    .text                                    0x2000006e   Section        0  memcpya.o(.text)
    .text                                    0x20000092   Section        0  memseta.o(.text)
    .text                                    0x200000b6   Section        0  strcat.o(.text)
    .text                                    0x200000ce   Section        0  strlen.o(.text)
    .text                                    0x200000dc   Section        0  strcmp.o(.text)
    .text                                    0x200000f8   Section        0  dadd.o(.text)
    .text                                    0x20000246   Section        0  dmul.o(.text)
    .text                                    0x2000032a   Section        0  ddiv.o(.text)
    .text                                    0x20000408   Section        0  dfltui.o(.text)
    .text                                    0x20000422   Section        0  dfixui.o(.text)
    .text                                    0x20000454   Section        0  dfixul.o(.text)
    .text                                    0x20000484   Section        0  f2d.o(.text)
    .text                                    0x200004ac   Section       40  cdcmple.o(.text)
    .text                                    0x200004d4   Section       40  cdrcmple.o(.text)
    .text                                    0x200004fc   Section        0  d2f.o(.text)
    .text                                    0x20000534   Section        0  llshl.o(.text)
    .text                                    0x20000552   Section        0  llushr.o(.text)
    .text                                    0x20000572   Section        0  llsshr.o(.text)
    .text                                    0x20000596   Section        0  iusefp.o(.text)
    .text                                    0x20000596   Section        0  fepilogue.o(.text)
    .text                                    0x20000602   Section        0  depilogue.o(.text)
    .text                                    0x200006c0   Section        0  dscalb.o(.text)
    .text                                    0x200006ee   Section        0  dflti.o(.text)
    .text                                    0x20000710   Section        0  dsqrt.o(.text)
    .text                                    0x200007b2   Section        0  __dczerorl2.o(.text)
    RAMCODE                                  0x20000810   Section        0  chipay.o(RAMCODE)
    RAMCODE                                  0x200009e0   Section        0  chipay_hardware.o(RAMCODE)
    RAMCODE                                  0x20000b04   Section        0  chipay_wildsound.o(RAMCODE)
    RAMCODE                                  0x20000eec   Section        0  chipay_main.o(RAMCODE)
    i.__ARM_fpclassify                       0x20000fac   Section        0  fpclassify.o(i.__ARM_fpclassify)
    i.__hardfp_pow                           0x20000fe0   Section        0  pow.o(i.__hardfp_pow)
    i.__kernel_poly                          0x20001c70   Section        0  poly.o(i.__kernel_poly)
    i.__mathlib_dbl_underflow                0x20001d68   Section        0  dunder.o(i.__mathlib_dbl_underflow)
    i.__set_errno                            0x20001d88   Section        0  errno.o(i.__set_errno)
    i.fabs                                   0x20001d94   Section        0  fabs.o(i.fabs)
    i.malloc                                 0x20001db4   Section        0  malloc.o(i.malloc)
    i.sqrt                                   0x20001e20   Section        0  sqrt.o(i.sqrt)
    .constdata                               0x20001e90   Section      136  pow.o(.constdata)
    bp                                       0x20001e90   Data          16  pow.o(.constdata)
    dp_h                                     0x20001ea0   Data          16  pow.o(.constdata)
    dp_l                                     0x20001eb0   Data          16  pow.o(.constdata)
    L                                        0x20001ec0   Data          48  pow.o(.constdata)
    P                                        0x20001ef0   Data          40  pow.o(.constdata)
    .constdata                               0x20001f18   Section        8  qnan.o(.constdata)
    RAMCODE                                  0x20001f20   Section      960  chipay_wildsound.o(RAMCODE)
    .data                                    0x200022e0   Section        4  memoryallocator.o(.data)
    .data                                    0x200022e4   Section       16  chipay_streamdata.o(.data)
    .data                                    0x200022f4   Section       16  chipay_streamdata.o(.data)
    .data                                    0x20002304   Section       76  chipay_streamdata.o(.data)
    .data                                    0x20002350   Section       56  chipay_interrupt.o(.data)
    xNVIC_IRQChannel                         0x20002350   Data           1  chipay_interrupt.o(.data)
    lastmode                                 0x20002351   Data           1  chipay_interrupt.o(.data)
    xEXTI_Line                               0x20002354   Data           4  chipay_interrupt.o(.data)
    mo                                       0x20002358   Data          48  chipay_interrupt.o(.data)
    .data                                    0x20002388   Section       20  bootflasherf4.o(.data)
    .data                                    0x2000239c   Section       16  stm32f4xx_rcc.o(.data)
    APBAHBPrescTable                         0x2000239c   Data          16  stm32f4xx_rcc.o(.data)
    .data                                    0x200023ac   Section        5  hardware.o(.data)
    .data                                    0x200023b4   Section       32  interface.o(.data)
    .data                                    0x200023d4   Section       28  hdtimers.o(.data)
    ccnt                                     0x200023e4   Data           4  hdtimers.o(.data)
    ccnt                                     0x200023e8   Data           4  hdtimers.o(.data)
    ccnt                                     0x200023ec   Data           4  hdtimers.o(.data)
    .data                                    0x200023f0   Section        4  mvars.o(.data)
    .data                                    0x200023f4   Section        4  mvars.o(.data)
    .data                                    0x200023f8   Section        4  errno.o(.data)
    _errno                                   0x200023f8   Data           4  errno.o(.data)
    RAMCODE                                  0x200023fc   Section       16  chipay_hardware.o(RAMCODE)
    od                                       0x200023fd   Data           1  chipay_hardware.o(RAMCODE)
    cnt                                      0x200023fe   Data           1  chipay_hardware.o(RAMCODE)
    RAMCODE                                  0x2000240c   Section      666  chipay_wildsound.o(RAMCODE)
    no0i                                     0x2000240c   Data           1  chipay_wildsound.o(RAMCODE)
    no1i                                     0x2000240d   Data           1  chipay_wildsound.o(RAMCODE)
    ay0no                                    0x2000240e   Data           2  chipay_wildsound.o(RAMCODE)
    ay1no                                    0x20002410   Data           2  chipay_wildsound.o(RAMCODE)
    RAMCODE                                  0x200026a6   Section        1  chipay_wildsound.o(RAMCODE)
    RAMCODE                                  0x200026a8   Section       16  chipay_main.o(RAMCODE)
    RAMCODE                                  0x200026b8   Section       40  chipay_main.o(RAMCODE)
    RAMCODE                                  0x200026e0   Section       16  chipay_main.o(RAMCODE)
    RAMCODE                                  0x200026f0   Section        4  chipay_main.o(RAMCODE)
    RAMCODE                                  0x200026f4   Section        8  chipay_main.o(RAMCODE)
    RAMCODE                                  0x200026fc   Section        4  chipay_main.o(RAMCODE)
    RAMCODE                                  0x20002700   Section        8  chipay_main.o(RAMCODE)
    .bss                                     0x20002708   Section    14720  chipay_digitalplayer.o(.bss)
    .bss                                     0x20006088   Section      128  memoryallocator.o(.bss)
    .bss                                     0x20006108   Section      128  chipay_streamdata.o(.bss)
    .bss                                     0x20006188   Section      128  chipay_streamdata.o(.bss)
    .bss                                     0x20006208   Section      123  bootflasherf4.o(.bss)
    .bss                                     0x20006283   Section      256  interface.o(.bss)
    .bss                                     0x20006383   Section       32  interface.o(.bss)
    .bss                                     0x200063a4   Section       16  hdtimers.o(.bss)
    HEAP                                     0x200063b8   Section      512  startup_stm32f40_41xxx.o(HEAP)
    RAMCODE                                  0x200065b8   Section       20  chipay_hardware.o(RAMCODE)
    RAMCODE                                  0x200065cc   Section       16  chipay_main.o(RAMCODE)
    RAMCODE                                  0x200065dc   Section       16  chipay_main.o(RAMCODE)
    STACK                                    0x200065f0   Section      768  startup_stm32f40_41xxx.o(STACK)
    ccmram                                   0x20018078   Section       88  chipay_interrupt.o(ccmram)
    $v0                                      0x20018078   Number         0  chipay_interrupt.o(ccmram)
    ccmram                                   0x200180d0   Section        0  chipay_interrupt.o(ccmram)
    __tagsym$$used                           0x20018bab   Number         0  chipay_interrupt.o(ccmram)
    ccmram                                   0x20018d34   Section     1327  chipay_interrupt.o(ccmram)
    ccmram                                   0x20019264   Section       29  chipay_interrupt.o(ccmram)
    busy                                     0x20019264   Data           1  chipay_interrupt.o(ccmram)
    ccmram                                   0x20019300   Section     1024  hdinterrupt.o(ccmram)
    ccmram                                   0x20019700   Section       32  chipay_interrupt.o(ccmram)

    Global Symbols

    Symbol Name                              Value     Ov Type        Size  Object(Section)

    BuildAttributes$$THM_ISAv4$E$P$D$K$B$S$7EM$VFPi3$EXTD16$VFPS$VFMA$PE$A:L22UL41UL21$X:L11$S22US41US21$IEEE1$IW$USESV6$~STKCKD$USESV7$~SHL$OTIME$ROPI$IEEEX$EBA8$MICROLIB$REQ8$EABIv2 0x00000000   Number         0  anon$$obj.o ABSOLUTE
    __ARM_use_no_argv                        0x00000000   Number         0  main.o ABSOLUTE
    __cpp_initialize__aeabi_                  - Undefined Weak Reference
    __cxa_finalize                            - Undefined Weak Reference
    _clock_init                               - Undefined Weak Reference
    _microlib_exit                            - Undefined Weak Reference
    __Vectors_Size                           0x00000188   Number         0  startup_stm32f40_41xxx.o ABSOLUTE
    Load$$LR$$LR_IROM$$Base                  0x08000000   Number         0  anon$$obj.o ABSOLUTE
    __Vectors                                0x08000000   Data           4  startup_stm32f40_41xxx.o(RESET)
    __Vectors_End                            0x08000188   Data           0  startup_stm32f40_41xxx.o(RESET)
    __main                                   0x08000189   Thumb Code     0  entry.o(.ARM.Collect$$$$00000000)
    _main_stk                                0x08000189   Thumb Code     0  entry2.o(.ARM.Collect$$$$00000001)
    _main_scatterload                        0x0800018d   Thumb Code     0  entry5.o(.ARM.Collect$$$$00000004)
    __main_after_scatterload                 0x08000191   Thumb Code     0  entry5.o(.ARM.Collect$$$$00000004)
    _main_clock                              0x08000191   Thumb Code     0  entry7b.o(.ARM.Collect$$$$00000008)
    _main_cpp_init                           0x08000191   Thumb Code     0  entry8b.o(.ARM.Collect$$$$0000000A)
    _main_init                               0x08000191   Thumb Code     0  entry9a.o(.ARM.Collect$$$$0000000B)
    __rt_final_cpp                           0x08000199   Thumb Code     0  entry10a.o(.ARM.Collect$$$$0000000D)
    __rt_final_exit                          0x08000199   Thumb Code     0  entry11a.o(.ARM.Collect$$$$0000000F)
    bflBootExtremalExec                      0x0800019d   Thumb Code     8  bootflasherf4.o(.emb_text)
    bflBootExtremalCopyExec                  0x080001a5   Thumb Code    32  bootflasherf4.o(.emb_text)
    Reset_Handler                            0x080001c5   Thumb Code     8  startup_stm32f40_41xxx.o(.text)
    NMI_Handler                              0x080001cd   Thumb Code     2  startup_stm32f40_41xxx.o(.text)
    HardFault_Handler                        0x080001cf   Thumb Code     2  startup_stm32f40_41xxx.o(.text)
    MemManage_Handler                        0x080001d1   Thumb Code     2  startup_stm32f40_41xxx.o(.text)
    BusFault_Handler                         0x080001d3   Thumb Code     2  startup_stm32f40_41xxx.o(.text)
    UsageFault_Handler                       0x080001d5   Thumb Code     2  startup_stm32f40_41xxx.o(.text)
    SVC_Handler                              0x080001d7   Thumb Code     2  startup_stm32f40_41xxx.o(.text)
    DebugMon_Handler                         0x080001d9   Thumb Code     2  startup_stm32f40_41xxx.o(.text)
    PendSV_Handler                           0x080001db   Thumb Code     2  startup_stm32f40_41xxx.o(.text)
    ADC_IRQHandler                           0x080001df   Thumb Code     0  startup_stm32f40_41xxx.o(.text)
    CAN1_RX0_IRQHandler                      0x080001df   Thumb Code     0  startup_stm32f40_41xxx.o(.text)
    CAN1_RX1_IRQHandler                      0x080001df   Thumb Code     0  startup_stm32f40_41xxx.o(.text)
    CAN1_SCE_IRQHandler                      0x080001df   Thumb Code     0  startup_stm32f40_41xxx.o(.text)
    CAN1_TX_IRQHandler                       0x080001df   Thumb Code     0  startup_stm32f40_41xxx.o(.text)
    CAN2_RX0_IRQHandler                      0x080001df   Thumb Code     0  startup_stm32f40_41xxx.o(.text)
    CAN2_RX1_IRQHandler                      0x080001df   Thumb Code     0  startup_stm32f40_41xxx.o(.text)
    CAN2_SCE_IRQHandler                      0x080001df   Thumb Code     0  startup_stm32f40_41xxx.o(.text)
    CAN2_TX_IRQHandler                       0x080001df   Thumb Code     0  startup_stm32f40_41xxx.o(.text)
    CRYP_IRQHandler                          0x080001df   Thumb Code     0  startup_stm32f40_41xxx.o(.text)
    DCMI_IRQHandler                          0x080001df   Thumb Code     0  startup_stm32f40_41xxx.o(.text)
    DMA1_Stream0_IRQHandler                  0x080001df   Thumb Code     0  startup_stm32f40_41xxx.o(.text)
    DMA1_Stream1_IRQHandler                  0x080001df   Thumb Code     0  startup_stm32f40_41xxx.o(.text)
    DMA1_Stream2_IRQHandler                  0x080001df   Thumb Code     0  startup_stm32f40_41xxx.o(.text)
    DMA1_Stream3_IRQHandler                  0x080001df   Thumb Code     0  startup_stm32f40_41xxx.o(.text)
    DMA1_Stream4_IRQHandler                  0x080001df   Thumb Code     0  startup_stm32f40_41xxx.o(.text)
    DMA1_Stream5_IRQHandler                  0x080001df   Thumb Code     0  startup_stm32f40_41xxx.o(.text)
    DMA1_Stream6_IRQHandler                  0x080001df   Thumb Code     0  startup_stm32f40_41xxx.o(.text)
    DMA1_Stream7_IRQHandler                  0x080001df   Thumb Code     0  startup_stm32f40_41xxx.o(.text)
    DMA2_Stream0_IRQHandler                  0x080001df   Thumb Code     0  startup_stm32f40_41xxx.o(.text)
    DMA2_Stream1_IRQHandler                  0x080001df   Thumb Code     0  startup_stm32f40_41xxx.o(.text)
    DMA2_Stream2_IRQHandler                  0x080001df   Thumb Code     0  startup_stm32f40_41xxx.o(.text)
    DMA2_Stream3_IRQHandler                  0x080001df   Thumb Code     0  startup_stm32f40_41xxx.o(.text)
    DMA2_Stream4_IRQHandler                  0x080001df   Thumb Code     0  startup_stm32f40_41xxx.o(.text)
    DMA2_Stream5_IRQHandler                  0x080001df   Thumb Code     0  startup_stm32f40_41xxx.o(.text)
    DMA2_Stream6_IRQHandler                  0x080001df   Thumb Code     0  startup_stm32f40_41xxx.o(.text)
    DMA2_Stream7_IRQHandler                  0x080001df   Thumb Code     0  startup_stm32f40_41xxx.o(.text)
    ETH_IRQHandler                           0x080001df   Thumb Code     0  startup_stm32f40_41xxx.o(.text)
    ETH_WKUP_IRQHandler                      0x080001df   Thumb Code     0  startup_stm32f40_41xxx.o(.text)
    EXTI0_IRQHandler                         0x080001df   Thumb Code     0  startup_stm32f40_41xxx.o(.text)
    EXTI1_IRQHandler                         0x080001df   Thumb Code     0  startup_stm32f40_41xxx.o(.text)
    EXTI3_IRQHandler                         0x080001df   Thumb Code     0  startup_stm32f40_41xxx.o(.text)
    EXTI4_IRQHandler                         0x080001df   Thumb Code     0  startup_stm32f40_41xxx.o(.text)
    FLASH_IRQHandler                         0x080001df   Thumb Code     0  startup_stm32f40_41xxx.o(.text)
    FPU_IRQHandler                           0x080001df   Thumb Code     0  startup_stm32f40_41xxx.o(.text)
    FSMC_IRQHandler                          0x080001df   Thumb Code     0  startup_stm32f40_41xxx.o(.text)
    HASH_RNG_IRQHandler                      0x080001df   Thumb Code     0  startup_stm32f40_41xxx.o(.text)
    I2C1_ER_IRQHandler                       0x080001df   Thumb Code     0  startup_stm32f40_41xxx.o(.text)
    I2C1_EV_IRQHandler                       0x080001df   Thumb Code     0  startup_stm32f40_41xxx.o(.text)
    I2C2_ER_IRQHandler                       0x080001df   Thumb Code     0  startup_stm32f40_41xxx.o(.text)
    I2C2_EV_IRQHandler                       0x080001df   Thumb Code     0  startup_stm32f40_41xxx.o(.text)
    I2C3_ER_IRQHandler                       0x080001df   Thumb Code     0  startup_stm32f40_41xxx.o(.text)
    I2C3_EV_IRQHandler                       0x080001df   Thumb Code     0  startup_stm32f40_41xxx.o(.text)
    OTG_FS_IRQHandler                        0x080001df   Thumb Code     0  startup_stm32f40_41xxx.o(.text)
    OTG_FS_WKUP_IRQHandler                   0x080001df   Thumb Code     0  startup_stm32f40_41xxx.o(.text)
    OTG_HS_EP1_IN_IRQHandler                 0x080001df   Thumb Code     0  startup_stm32f40_41xxx.o(.text)
    OTG_HS_EP1_OUT_IRQHandler                0x080001df   Thumb Code     0  startup_stm32f40_41xxx.o(.text)
    OTG_HS_IRQHandler                        0x080001df   Thumb Code     0  startup_stm32f40_41xxx.o(.text)
    OTG_HS_WKUP_IRQHandler                   0x080001df   Thumb Code     0  startup_stm32f40_41xxx.o(.text)
    PVD_IRQHandler                           0x080001df   Thumb Code     0  startup_stm32f40_41xxx.o(.text)
    RCC_IRQHandler                           0x080001df   Thumb Code     0  startup_stm32f40_41xxx.o(.text)
    RTC_Alarm_IRQHandler                     0x080001df   Thumb Code     0  startup_stm32f40_41xxx.o(.text)
    RTC_WKUP_IRQHandler                      0x080001df   Thumb Code     0  startup_stm32f40_41xxx.o(.text)
    SDIO_IRQHandler                          0x080001df   Thumb Code     0  startup_stm32f40_41xxx.o(.text)
    SPI1_IRQHandler                          0x080001df   Thumb Code     0  startup_stm32f40_41xxx.o(.text)
    SPI2_IRQHandler                          0x080001df   Thumb Code     0  startup_stm32f40_41xxx.o(.text)
    SPI3_IRQHandler                          0x080001df   Thumb Code     0  startup_stm32f40_41xxx.o(.text)
    TAMP_STAMP_IRQHandler                    0x080001df   Thumb Code     0  startup_stm32f40_41xxx.o(.text)
    TIM1_BRK_TIM9_IRQHandler                 0x080001df   Thumb Code     0  startup_stm32f40_41xxx.o(.text)
    TIM1_CC_IRQHandler                       0x080001df   Thumb Code     0  startup_stm32f40_41xxx.o(.text)
    TIM1_TRG_COM_TIM11_IRQHandler            0x080001df   Thumb Code     0  startup_stm32f40_41xxx.o(.text)
    TIM1_UP_TIM10_IRQHandler                 0x080001df   Thumb Code     0  startup_stm32f40_41xxx.o(.text)
    TIM2_IRQHandler                          0x080001df   Thumb Code     0  startup_stm32f40_41xxx.o(.text)
    TIM5_IRQHandler                          0x080001df   Thumb Code     0  startup_stm32f40_41xxx.o(.text)
    TIM6_DAC_IRQHandler                      0x080001df   Thumb Code     0  startup_stm32f40_41xxx.o(.text)
    TIM7_IRQHandler                          0x080001df   Thumb Code     0  startup_stm32f40_41xxx.o(.text)
    TIM8_BRK_TIM12_IRQHandler                0x080001df   Thumb Code     0  startup_stm32f40_41xxx.o(.text)
    TIM8_CC_IRQHandler                       0x080001df   Thumb Code     0  startup_stm32f40_41xxx.o(.text)
    TIM8_TRG_COM_TIM14_IRQHandler            0x080001df   Thumb Code     0  startup_stm32f40_41xxx.o(.text)
    TIM8_UP_TIM13_IRQHandler                 0x080001df   Thumb Code     0  startup_stm32f40_41xxx.o(.text)
    UART4_IRQHandler                         0x080001df   Thumb Code     0  startup_stm32f40_41xxx.o(.text)
    UART5_IRQHandler                         0x080001df   Thumb Code     0  startup_stm32f40_41xxx.o(.text)
    USART2_IRQHandler                        0x080001df   Thumb Code     0  startup_stm32f40_41xxx.o(.text)
    USART3_IRQHandler                        0x080001df   Thumb Code     0  startup_stm32f40_41xxx.o(.text)
    USART6_IRQHandler                        0x080001df   Thumb Code     0  startup_stm32f40_41xxx.o(.text)
    WWDG_IRQHandler                          0x080001df   Thumb Code     0  startup_stm32f40_41xxx.o(.text)
    __scatterload                            0x080001e9   Thumb Code    28  init.o(.text)
    __scatterload_rt2                        0x080001e9   Thumb Code     0  init.o(.text)
    EXT_DoPortDelay                          0x0800020d   Thumb Code    10  chipay_interrupt.o(ROMCODE)
    EXT_DoPortSendSPIx                       0x08000217   Thumb Code   162  chipay_interrupt.o(ROMCODE)
    EXT_DoAyxCmd                             0x080002b9   Thumb Code    92  chipay_interrupt.o(ROMCODE)
    EXTI01_extProcRobusCFG                   0x08000315   Thumb Code    42  chipay_interrupt.o(ROMCODE)
    getNextVar                               0x0800033f   Thumb Code   132  chipay_interrupt.o(ROMCODE)
    WildDateVerToFirmVerConverter            0x080003c3   Thumb Code   124  chipay_interrupt.o(ROMCODE)
    WildConvertDateToString                  0x0800043f   Thumb Code   312  chipay_interrupt.o(ROMCODE)
    chipAY_IO_HardPoolIntCFG                 0x08000577   Thumb Code   290  chipay_interrupt.o(ROMCODE)
    chipAY_IOConfig                          0x08000699   Thumb Code    30  chipay_interrupt.o(ROMCODE)
    chipAY_InterruptConfig                   0x080006b7   Thumb Code   570  chipay_interrupt.o(ROMCODE)
    SysTick_Handler                          0x080008f1   Thumb Code    10  chipay_interrupt.o(ROMCODE)
    Long Thumb to Thumb Veneer to EXT_DoAyBusReg 0x08000939   Thumb Code    10  anon$$obj.o(Veneer$$Code)
    Long Thumb to Thumb Veneer to toupper    0x08000943   Thumb Code    10  anon$$obj.o(Veneer$$Code)
    Long Thumb to Thumb Veneer to strcmp     0x0800094d   Thumb Code    10  anon$$obj.o(Veneer$$Code)
    Long Thumb to Thumb Veneer to strlen     0x08000957   Thumb Code    10  anon$$obj.o(Veneer$$Code)
    Long Thumb to Thumb Veneer to strcat     0x08000961   Thumb Code    10  anon$$obj.o(Veneer$$Code)
    Long Thumb to Thumb Veneer to __aeabi_uldivmod 0x0800096b   Thumb Code    10  anon$$obj.o(Veneer$$Code)
    Long Thumb to Thumb Veneer to EXT_DoAyBusUpdate 0x08000975   Thumb Code    10  anon$$obj.o(Veneer$$Code)
    Long Thumb to Thumb Veneer to __aeabi_memcpy4 0x0800097f   Thumb Code    10  anon$$obj.o(Veneer$$Code)
    Long Thumb to Thumb Veneer to __aeabi_f2d 0x08000989   Thumb Code    10  anon$$obj.o(Veneer$$Code)
    Long Thumb to Thumb Veneer to __hardfp_pow 0x08000993   Thumb Code    10  anon$$obj.o(Veneer$$Code)
    Long Thumb to Thumb Veneer to __aeabi_dmul 0x0800099d   Thumb Code    10  anon$$obj.o(Veneer$$Code)
    Long Thumb to Thumb Veneer to __aeabi_d2f 0x080009a7   Thumb Code    10  anon$$obj.o(Veneer$$Code)
    Long Thumb to Thumb Veneer to __aeabi_ui2d 0x080009b1   Thumb Code    10  anon$$obj.o(Veneer$$Code)
    Long Thumb to Thumb Veneer to __aeabi_dsub 0x080009bb   Thumb Code    10  anon$$obj.o(Veneer$$Code)
    Long Thumb to Thumb Veneer to __aeabi_dadd 0x080009c5   Thumb Code    10  anon$$obj.o(Veneer$$Code)
    Long Thumb to Thumb Veneer to __aeabi_ddiv 0x080009cf   Thumb Code    10  anon$$obj.o(Veneer$$Code)
    Long Thumb to Thumb Veneer to __aeabi_memcpy 0x080009d9   Thumb Code    10  anon$$obj.o(Veneer$$Code)
    Long Thumb to Thumb Veneer to __aeabi_cdcmple 0x080009e3   Thumb Code    10  anon$$obj.o(Veneer$$Code)
    Long Thumb to Thumb Veneer to __aeabi_cdrcmple 0x080009ed   Thumb Code    10  anon$$obj.o(Veneer$$Code)
    Long Thumb to Thumb Veneer to __aeabi_d2uiz 0x080009f7   Thumb Code    10  anon$$obj.o(Veneer$$Code)
    Long Thumb to Thumb Veneer to __aeabi_memclr 0x08000a01   Thumb Code    10  anon$$obj.o(Veneer$$Code)
    Long Thumb to Thumb Veneer to __aeabi_memclr4 0x08000a0b   Thumb Code    10  anon$$obj.o(Veneer$$Code)
    Long Thumb to Thumb Veneer to __aeabi_memset 0x08000a15   Thumb Code    10  anon$$obj.o(Veneer$$Code)
    Long Thumb to Thumb Veneer to __aeabi_d2ulz 0x08000a1f   Thumb Code    10  anon$$obj.o(Veneer$$Code)
    Long Thumb to Thumb Veneer to ChipAY_ArmInit 0x08000a29   Thumb Code    10  anon$$obj.o(Veneer$$Code)
    Long Thumb to Thumb Veneer to ChipAY_Init 0x08000a33   Thumb Code    10  anon$$obj.o(Veneer$$Code)
    Long Thumb to Thumb Veneer to chMain     0x08000a3d   Thumb Code    10  anon$$obj.o(Veneer$$Code)
    Long Thumb to Thumb Veneer to malloc     0x08000a47   Thumb Code    10  anon$$obj.o(Veneer$$Code)
    Long Thumb to Thumb Veneer to prcAYRprcR0E 0x08000a51   Thumb Code    10  anon$$obj.o(Veneer$$Code)
    CallProc                                 0x08000a5b   Thumb Code    38  process.o(i.CallProc)
    DAC_Cmd                                  0x08000a81   Thumb Code    20  stm32f4xx_dac.o(i.DAC_Cmd)
    DAC_DMACmd                               0x08000a99   Thumb Code    20  stm32f4xx_dac.o(i.DAC_DMACmd)
    DAC_Init                                 0x08000ab1   Thumb Code    36  stm32f4xx_dac.o(i.DAC_Init)
    DMA_ClearFlag                            0x08000ad9   Thumb Code    32  stm32f4xx_dma.o(i.DMA_ClearFlag)
    DMA_Cmd                                  0x08000b05   Thumb Code    20  stm32f4xx_dma.o(i.DMA_Cmd)
    DMA_ITConfig                             0x08000b19   Thumb Code    52  stm32f4xx_dma.o(i.DMA_ITConfig)
    DMA_Init                                 0x08000b4d   Thumb Code    80  stm32f4xx_dma.o(i.DMA_Init)
    DelayMCS                                 0x08000ba1   Thumb Code   124  hdtimers.o(i.DelayMCS)
    DelayMS                                  0x08000c31   Thumb Code   136  hdtimers.o(i.DelayMS)
    DoProc                                   0x08000ccd   Thumb Code   128  process.o(i.DoProc)
    EXTI15_10_IRQHandler                     0x08000d4d   Thumb Code   102  chipay_interrupt.o(i.EXTI15_10_IRQHandler)
    EXTI2_IRQHandler                         0x08000dc5   Thumb Code    58  chipay_interrupt.o(i.EXTI2_IRQHandler)
    EXTI9_5_IRQHandler                       0x08000e11   Thumb Code   102  chipay_interrupt.o(i.EXTI9_5_IRQHandler)
    EXTI_ClearITPendingBit                   0x08000e89   Thumb Code     6  stm32f4xx_exti.o(i.EXTI_ClearITPendingBit)
    EXTI_Init                                0x08000e95   Thumb Code   108  stm32f4xx_exti.o(i.EXTI_Init)
    FLASH_ClearFlag                          0x08000f05   Thumb Code     6  stm32f4xx_flash.o(i.FLASH_ClearFlag)
    FLASH_DataCacheCmd                       0x08000f11   Thumb Code    22  stm32f4xx_flash.o(i.FLASH_DataCacheCmd)
    FLASH_DataCacheReset                     0x08000f2d   Thumb Code    12  stm32f4xx_flash.o(i.FLASH_DataCacheReset)
    FLASH_ErasePage                          0x08000f3d   Thumb Code    24  bootflasherf4.o(i.FLASH_ErasePage)
    FLASH_EraseSector                        0x08000f55   Thumb Code   104  stm32f4xx_flash.o(i.FLASH_EraseSector)
    FLASH_GetStatus                          0x08000fc1   Thumb Code    46  stm32f4xx_flash.o(i.FLASH_GetStatus)
    FLASH_InstructionCacheCmd                0x08000ff5   Thumb Code    22  stm32f4xx_flash.o(i.FLASH_InstructionCacheCmd)
    FLASH_InstructionCacheReset              0x08001011   Thumb Code    12  stm32f4xx_flash.o(i.FLASH_InstructionCacheReset)
    FLASH_Lock                               0x08001021   Thumb Code    12  stm32f4xx_flash.o(i.FLASH_Lock)
    FLASH_OB_Unlock                          0x08001031   Thumb Code    22  stm32f4xx_flash.o(i.FLASH_OB_Unlock)
    FLASH_PrefetchBufferCmd                  0x08001055   Thumb Code    22  stm32f4xx_flash.o(i.FLASH_PrefetchBufferCmd)
    FLASH_ProgramHalfWord                    0x08001071   Thumb Code    56  stm32f4xx_flash.o(i.FLASH_ProgramHalfWord)
    FLASH_SetLatency                         0x080010ad   Thumb Code     6  stm32f4xx_flash.o(i.FLASH_SetLatency)
    FLASH_Unlock                             0x080010b9   Thumb Code    22  stm32f4xx_flash.o(i.FLASH_Unlock)
    FLASH_WaitForLastOperation               0x080010dd   Thumb Code    30  stm32f4xx_flash.o(i.FLASH_WaitForLastOperation)
    GPIO_Init                                0x080010fb   Thumb Code   162  stm32f4xx_gpio.o(i.GPIO_Init)
    GPIO_PinAFConfig                         0x0800119d   Thumb Code    32  stm32f4xx_gpio.o(i.GPIO_PinAFConfig)
    Init                                     0x080011bd   Thumb Code    34  hardware.o(i.Init)
    ListProcADD                              0x080011ed   Thumb Code    24  process.o(i.ListProcADD)
    ListProcRoll                             0x08001205   Thumb Code    40  process.o(i.ListProcRoll)
    NVIC_Init                                0x0800122d   Thumb Code    92  misc.o(i.NVIC_Init)
    PerFrCalc                                0x08001291   Thumb Code   734  chipay_digitalplayer.o(i.PerFrCalc)
    RCC_AHB1PeriphClockCmd                   0x080015a5   Thumb Code    18  stm32f4xx_rcc.o(i.RCC_AHB1PeriphClockCmd)
    RCC_AHB2PeriphClockCmd                   0x080015bd   Thumb Code    18  stm32f4xx_rcc.o(i.RCC_AHB2PeriphClockCmd)
    RCC_APB1PeriphClockCmd                   0x080015d5   Thumb Code    18  stm32f4xx_rcc.o(i.RCC_APB1PeriphClockCmd)
    RCC_APB1PeriphResetCmd                   0x080015ed   Thumb Code    18  stm32f4xx_rcc.o(i.RCC_APB1PeriphResetCmd)
    RCC_APB2PeriphClockCmd                   0x08001605   Thumb Code    18  stm32f4xx_rcc.o(i.RCC_APB2PeriphClockCmd)
    RCC_APB2PeriphResetCmd                   0x0800161d   Thumb Code    18  stm32f4xx_rcc.o(i.RCC_APB2PeriphResetCmd)
    RCC_Configuration                        0x08001635   Thumb Code   318  hardware.o(i.RCC_Configuration)
    RCC_DeInit                               0x08001775   Thumb Code    48  stm32f4xx_rcc.o(i.RCC_DeInit)
    RCC_GetClocksFreq                        0x080017b1   Thumb Code   118  stm32f4xx_rcc.o(i.RCC_GetClocksFreq)
    RCC_GetFlagStatus                        0x08001835   Thumb Code    46  stm32f4xx_rcc.o(i.RCC_GetFlagStatus)
    RCC_HCLKConfig                           0x08001869   Thumb Code    14  stm32f4xx_rcc.o(i.RCC_HCLKConfig)
    RCC_HSEConfig                            0x0800187d   Thumb Code    10  stm32f4xx_rcc.o(i.RCC_HSEConfig)
    RCC_PCLK1Config                          0x0800188d   Thumb Code    14  stm32f4xx_rcc.o(i.RCC_PCLK1Config)
    RCC_PCLK2Config                          0x080018a1   Thumb Code    16  stm32f4xx_rcc.o(i.RCC_PCLK2Config)
    RCC_PLLCmd                               0x080018b5   Thumb Code     6  stm32f4xx_rcc.o(i.RCC_PLLCmd)
    RCC_PLLConfig                            0x080018c1   Thumb Code    30  stm32f4xx_rcc.o(i.RCC_PLLConfig)
    RCC_SYSCLKConfig                         0x080018e9   Thumb Code    14  stm32f4xx_rcc.o(i.RCC_SYSCLKConfig)
    RCC_WaitForHSEStartUp                    0x080018fd   Thumb Code    44  stm32f4xx_rcc.o(i.RCC_WaitForHSEStartUp)
    RNG_Cmd                                  0x08001929   Thumb Code    22  stm32f4xx_rng.o(i.RNG_Cmd)
    RNG_Config                               0x08001945   Thumb Code    18  main.o(i.RNG_Config)
    Read_RS_Byte                             0x08001959   Thumb Code    28  interface.o(i.Read_RS_Byte)
    Read_RS_Size                             0x08001979   Thumb Code     6  interface.o(i.Read_RS_Size)
    ReturnProc                               0x08001985   Thumb Code    26  process.o(i.ReturnProc)
    SPI_Cmd                                  0x0800199f   Thumb Code    20  stm32f4xx_spi.o(i.SPI_Cmd)
    SPI_I2S_DMACmd                           0x080019b3   Thumb Code    16  stm32f4xx_spi.o(i.SPI_I2S_DMACmd)
    SPI_I2S_DeInit                           0x080019c5   Thumb Code    72  stm32f4xx_spi.o(i.SPI_I2S_DeInit)
    SPI_Init                                 0x08001a19   Thumb Code    56  stm32f4xx_spi.o(i.SPI_Init)
    SPI_NSSInternalSoftwareConfig            0x08001a51   Thumb Code    24  stm32f4xx_spi.o(i.SPI_NSSInternalSoftwareConfig)
    SPI_SSOutputCmd                          0x08001a69   Thumb Code    20  stm32f4xx_spi.o(i.SPI_SSOutputCmd)
    SYSCFG_EXTILineConfig                    0x08001a7d   Thumb Code    34  stm32f4xx_syscfg.o(i.SYSCFG_EXTILineConfig)
    SelectInitGPIO                           0x08001aa5   Thumb Code   366  hardware.o(i.SelectInitGPIO)
    Send_RS_B                                0x08001c21   Thumb Code    34  interface.o(i.Send_RS_B)
    Send_RS_Buf                              0x08001c51   Thumb Code   158  interface.o(i.Send_RS_Buf)
    Send_RS_Byte                             0x08001cf9   Thumb Code    12  interface.o(i.Send_RS_Byte)
    Send_RS_DEC                              0x08001d05   Thumb Code     8  interface.o(i.Send_RS_DEC)
    Send_RS_FREEBusy                         0x08001d11   Thumb Code    44  interface.o(i.Send_RS_FREEBusy)
    Send_RS_HEX                              0x08001d45   Thumb Code    10  interface.o(i.Send_RS_HEX)
    Send_RS_Hold                             0x08001d55   Thumb Code   108  interface.o(i.Send_RS_Hold)
    Send_RS_String                           0x08001dc9   Thumb Code    20  interface.o(i.Send_RS_String)
    SetupSPI                                 0x08001ddd   Thumb Code   476  hardware.o(i.SetupSPI)
    ShowMalBaseRec                           0x08001fd9   Thumb Code   100  memoryallocator.o(i.ShowMalBaseRec)
    ShowStartInfo                            0x08002065   Thumb Code   104  main.o(i.ShowStartInfo)
    SystemInit                               0x08002111   Thumb Code    22  hardware.o(i.SystemInit)
    TIM_BDTRConfig                           0x08002191   Thumb Code    34  stm32f4xx_tim.o(i.TIM_BDTRConfig)
    TIM_BDTRStructInit                       0x080021b3   Thumb Code    18  stm32f4xx_tim.o(i.TIM_BDTRStructInit)
    TIM_ClearITPendingBit                    0x080021c5   Thumb Code     6  stm32f4xx_tim.o(i.TIM_ClearITPendingBit)
    TIM_Cmd                                  0x080021cb   Thumb Code    20  stm32f4xx_tim.o(i.TIM_Cmd)
    TIM_DMACmd                               0x080021df   Thumb Code    16  stm32f4xx_tim.o(i.TIM_DMACmd)
    TIM_ICInit                               0x080021ef   Thumb Code   172  stm32f4xx_tim.o(i.TIM_ICInit)
    TIM_ITConfig                             0x0800229b   Thumb Code    16  stm32f4xx_tim.o(i.TIM_ITConfig)
    TIM_OC1Init                              0x080022ad   Thumb Code    88  stm32f4xx_tim.o(i.TIM_OC1Init)
    TIM_OC1PreloadConfig                     0x0800230d   Thumb Code    12  stm32f4xx_tim.o(i.TIM_OC1PreloadConfig)
    TIM_OC2Init                              0x08002319   Thumb Code   120  stm32f4xx_tim.o(i.TIM_OC2Init)
    TIM_OC2PreloadConfig                     0x08002399   Thumb Code    20  stm32f4xx_tim.o(i.TIM_OC2PreloadConfig)
    TIM_OC3Init                              0x080023ad   Thumb Code   116  stm32f4xx_tim.o(i.TIM_OC3Init)
    TIM_OC3PreloadConfig                     0x08002429   Thumb Code    12  stm32f4xx_tim.o(i.TIM_OC3PreloadConfig)
    TIM_OC4Init                              0x08002435   Thumb Code    88  stm32f4xx_tim.o(i.TIM_OC4Init)
    TIM_OC4PreloadConfig                     0x08002495   Thumb Code    20  stm32f4xx_tim.o(i.TIM_OC4PreloadConfig)
    TIM_SelectInputTrigger                   0x080024a9   Thumb Code    12  stm32f4xx_tim.o(i.TIM_SelectInputTrigger)
    TIM_SelectMasterSlaveMode                0x080024b5   Thumb Code    16  stm32f4xx_tim.o(i.TIM_SelectMasterSlaveMode)
    TIM_SelectOutputTrigger                  0x080024c5   Thumb Code    16  stm32f4xx_tim.o(i.TIM_SelectOutputTrigger)
    TIM_SelectSlaveMode                      0x080024d5   Thumb Code    16  stm32f4xx_tim.o(i.TIM_SelectSlaveMode)
    TIM_SetIC1Prescaler                      0x080024e5   Thumb Code    16  stm32f4xx_tim.o(i.TIM_SetIC1Prescaler)
    TIM_SetIC2Prescaler                      0x080024f5   Thumb Code    24  stm32f4xx_tim.o(i.TIM_SetIC2Prescaler)
    TIM_SetIC3Prescaler                      0x0800250d   Thumb Code    16  stm32f4xx_tim.o(i.TIM_SetIC3Prescaler)
    TIM_SetIC4Prescaler                      0x0800251d   Thumb Code    24  stm32f4xx_tim.o(i.TIM_SetIC4Prescaler)
    TIM_TimeBaseInit                         0x08002535   Thumb Code    96  stm32f4xx_tim.o(i.TIM_TimeBaseInit)
    TIM_TimeBaseStructInit                   0x080025b1   Thumb Code    18  stm32f4xx_tim.o(i.TIM_TimeBaseStructInit)
    TimerCounterUpdate                       0x080025c5   Thumb Code    76  hdtimers.o(i.TimerCounterUpdate)
    Timer_1ms_CounterUpdate                  0x08002629   Thumb Code    78  hdtimers.o(i.Timer_1ms_CounterUpdate)
    USART1_GPIO                              0x0800268d   Thumb Code   172  interface.o(i.USART1_GPIO)
    USART1_IRQHandler                        0x0800273d   Thumb Code   114  interface.o(i.USART1_IRQHandler)
    USART_Cmd                                0x080027bd   Thumb Code    20  stm32f4xx_usart.o(i.USART_Cmd)
    USART_GetFlagStatus                      0x080027d1   Thumb Code    14  stm32f4xx_usart.o(i.USART_GetFlagStatus)
    USART_GetITStatus                        0x080027df   Thumb Code    62  stm32f4xx_usart.o(i.USART_GetITStatus)
    USART_ITConfig                           0x0800281d   Thumb Code    48  stm32f4xx_usart.o(i.USART_ITConfig)
    USART_Init                               0x0800284d   Thumb Code   174  stm32f4xx_usart.o(i.USART_Init)
    USART_ReceiveData                        0x08002905   Thumb Code     8  stm32f4xx_usart.o(i.USART_ReceiveData)
    USART_SendData                           0x0800290d   Thumb Code     8  stm32f4xx_usart.o(i.USART_SendData)
    Uart_RS_Init                             0x08002915   Thumb Code   196  interface.o(i.Uart_RS_Init)
    WaitMS_CheckContinue                     0x080029e5   Thumb Code    50  hdtimers.o(i.WaitMS_CheckContinue)
    XM_ChekSongEND                           0x08002a17   Thumb Code    56  chipay_digitalplayer.o(i.XM_ChekSongEND)
    XM_Player_STEP                           0x08002a51   Thumb Code  3748  chipay_digitalplayer.o(i.XM_Player_STEP)
    __scatterload_copy                       0x0800390d   Thumb Code    14  handlers.o(i.__scatterload_copy)
    __scatterload_null                       0x0800391b   Thumb Code     2  handlers.o(i.__scatterload_null)
    __scatterload_zeroinit                   0x0800391d   Thumb Code    14  handlers.o(i.__scatterload_zeroinit)
    bflBootBlockAddr                         0x0800392d   Thumb Code    36  bootflasherf4.o(i.bflBootBlockAddr)
    bflBootBlockPTR                          0x08003955   Thumb Code    12  bootflasherf4.o(i.bflBootBlockPTR)
    bflBootBlocks                            0x08003961   Thumb Code    84  bootflasherf4.o(i.bflBootBlocks)
    bflBootBlocksGetCRC                      0x080039c1   Thumb Code    30  bootflasherf4.o(i.bflBootBlocksGetCRC)
    bflBootCheckNeedFlashing                 0x080039e9   Thumb Code    38  bootflasherf4.o(i.bflBootCheckNeedFlashing)
    bflBootExtremalExecuteBlock              0x08003a15   Thumb Code    26  bootflasherf4.o(i.bflBootExtremalExecuteBlock)
    bflBootExtremalExecuteBlockType          0x08003a2f   Thumb Code    28  bootflasherf4.o(i.bflBootExtremalExecuteBlockType)
    bflBootFindByType                        0x08003a4b   Thumb Code    46  bootflasherf4.o(i.bflBootFindByType)
    bflBootFlashDisable                      0x08003a79   Thumb Code    22  bootflasherf4.o(i.bflBootFlashDisable)
    bflFlashErase                            0x08003a8f   Thumb Code    34  bootflasherf4.o(i.bflFlashErase)
    bflFlashEraseAlignBLK                    0x08003ab1   Thumb Code    82  bootflasherf4.o(i.bflFlashEraseAlignBLK)
    bflFlashSectorCfg                        0x08003b03   Thumb Code    82  bootflasherf4.o(i.bflFlashSectorCfg)
    bflFlashWriteBlock                       0x08003b55   Thumb Code   110  bootflasherf4.o(i.bflFlashWriteBlock)
    bflImageAddBlock                         0x08003bc3   Thumb Code    34  bootflasherf4.o(i.bflImageAddBlock)
    bflImageAddBlockA                        0x08003be5   Thumb Code   176  bootflasherf4.o(i.bflImageAddBlockA)
    bflImageFinish                           0x08003c9d   Thumb Code    96  bootflasherf4.o(i.bflImageFinish)
    bflImageStart                            0x08003d01   Thumb Code    38  bootflasherf4.o(i.bflImageStart)
    cayDigPlayerExtractLine                  0x08003d2d   Thumb Code   294  chipay_digitalplayer.o(i.cayDigPlayerExtractLine)
    cayDigPlayerExtractLineShow              0x08003e5d   Thumb Code    96  chipay_digitalplayer.o(i.cayDigPlayerExtractLineShow)
    cayDigPlayerGetPatDataSTR                0x08003ed1   Thumb Code   210  chipay_digitalplayer.o(i.cayDigPlayerGetPatDataSTR)
    cayDigPlayerGoToPatLine                  0x08003ffd   Thumb Code    94  chipay_digitalplayer.o(i.cayDigPlayerGoToPatLine)
    cayDigPlayerGoToPosLine                  0x0800405b   Thumb Code    52  chipay_digitalplayer.o(i.cayDigPlayerGoToPosLine)
    cayDigPlayerInit                         0x0800408f   Thumb Code   216  chipay_digitalplayer.o(i.cayDigPlayerInit)
    cayDigPlayerPool                         0x08004169   Thumb Code   212  chipay_digitalplayer.o(i.cayDigPlayerPool)
    cayDigPlayerSTEP                         0x08004241   Thumb Code   220  chipay_digitalplayer.o(i.cayDigPlayerSTEP)
    cayDigPlayerSetSamplePos                 0x0800431d   Thumb Code    48  chipay_digitalplayer.o(i.cayDigPlayerSetSamplePos)
    cayDigPlayerStreamFree                   0x0800434d   Thumb Code    24  chipay_digitalplayer.o(i.cayDigPlayerStreamFree)
    cayDigPlayerStreamGet                    0x08004365   Thumb Code    50  chipay_digitalplayer.o(i.cayDigPlayerStreamGet)
    cayDigPlayerStreamSize                   0x08004397   Thumb Code    18  chipay_digitalplayer.o(i.cayDigPlayerStreamSize)
    cayDigPlayerStreamWRStep                 0x080043a9   Thumb Code    16  chipay_digitalplayer.o(i.cayDigPlayerStreamWRStep)
    cayDigSmpAllocateInstrument              0x080043b9   Thumb Code   198  chipay_digitalsample.o(i.cayDigSmpAllocateInstrument)
    cayDigSmpAllocateInstrumentCreatBlank    0x0800447f   Thumb Code    84  chipay_digitalsample.o(i.cayDigSmpAllocateInstrumentCreatBlank)
    cayDigSmpCalcFreq                        0x080044d5   Thumb Code   160  chipay_digitalsample.o(i.cayDigSmpCalcFreq)
    cayDigSmpGenerateBUF                     0x08004585   Thumb Code   366  chipay_digitalsample.o(i.cayDigSmpGenerateBUF)
    cayDigSmpInstrumentAddByte               0x080046f3   Thumb Code    80  chipay_digitalsample.o(i.cayDigSmpInstrumentAddByte)
    cayDigSmpSetPos                          0x08004743   Thumb Code    50  chipay_digitalsample.o(i.cayDigSmpSetPos)
    cayStrmCacheDescMemParsingINSH           0x08004775   Thumb Code   180  chipay_streamdata.o(i.cayStrmCacheDescMemParsingINSH)
    cayStrmCacheDescMemParsingNOP            0x08004839   Thumb Code     4  chipay_streamdata.o(i.cayStrmCacheDescMemParsingNOP)
    cayStrmCacheDescMemParsingTRACK          0x0800483d   Thumb Code   154  chipay_streamdata.o(i.cayStrmCacheDescMemParsingTRACK)
    cayStrmClear                             0x080048e1   Thumb Code    24  chipay_streamdata.o(i.cayStrmClear)
    cayStrmCmdSet                            0x080048f9   Thumb Code     8  chipay_streamdata.o(i.cayStrmCmdSet)
    cayStrmFifoINwrSize                      0x08004901   Thumb Code     6  chipay_streamdata.o(i.cayStrmFifoINwrSize)
    cayStrmFifoOUwrB                         0x08004907   Thumb Code    32  chipay_streamdata.o(i.cayStrmFifoOUwrB)
    cayStrmFifoOUwrFree                      0x08004927   Thumb Code    12  chipay_streamdata.o(i.cayStrmFifoOUwrFree)
    cayStrmFlagGet                           0x08004933   Thumb Code     4  chipay_streamdata.o(i.cayStrmFlagGet)
    cayStrmFlagSet                           0x08004937   Thumb Code     8  chipay_streamdata.o(i.cayStrmFlagSet)
    cayStrmPool                              0x08004941   Thumb Code  1570  chipay_streamdata.o(i.cayStrmPool)
    chayBootFlashDo                          0x08005055   Thumb Code   180  chipay_bootflasher.o(i.chayBootFlashDo)
    chipAY_DacSetup                          0x0800513d   Thumb Code   270  chipay_hardware.o(i.chipAY_DacSetup)
    chipAY_HardwareInit                      0x0800526d   Thumb Code   172  chipay_hardware.o(i.chipAY_HardwareInit)
    chipAY_TimerFreq                         0x08005341   Thumb Code    62  chipay_hardware.o(i.chipAY_TimerFreq)
    chipAY_TimerRCC                          0x08005381   Thumb Code   308  chipay_hardware.o(i.chipAY_TimerRCC)
    chipAY_TimerSetup                        0x080054bd   Thumb Code   232  chipay_hardware.o(i.chipAY_TimerSetup)
    chipAY_TimerSetupX                       0x080055ad   Thumb Code   306  chipay_hardware.o(i.chipAY_TimerSetupX)
    crc16_blk                                0x080056e5   Thumb Code    44  rb_crc16.o(i.crc16_blk)
    crc16_blk_CCITT                          0x08005711   Thumb Code    44  rb_crc16.o(i.crc16_blk_CCITT)
    flashaddr                                0x0800573d   Thumb Code     6  bootflasherf4.o(i.flashaddr)
    flashsize                                0x08005745   Thumb Code     8  bootflasherf4.o(i.flashsize)
    flashtop                                 0x08005751   Thumb Code    16  bootflasherf4.o(i.flashtop)
    hdGPIO_Setup                             0x08005761   Thumb Code   246  hdports.o(i.hdGPIO_Setup)
    hdIntSetVector                           0x08005859   Thumb Code    12  hdinterrupt.o(i.hdIntSetVector)
    hdIntSwitchInterruptToRAM                0x08005869   Thumb Code    44  hdinterrupt.o(i.hdIntSwitchInterruptToRAM)
    isTimerCompareOverflowX                  0x080058a1   Thumb Code    26  hdtimers.o(i.isTimerCompareOverflowX)
    main                                     0x080058bd   Thumb Code    92  main.o(i.main)
    memalAllocateBaseListSize                0x0800591d   Thumb Code    88  memoryallocator.o(i.memalAllocateBaseListSize)
    memalBaseListByAddr                      0x08005979   Thumb Code    54  memoryallocator.o(i.memalBaseListByAddr)
    memalDescAllocate                        0x080059b5   Thumb Code    82  memoryallocator.o(i.memalDescAllocate)
    memalDescFree                            0x08005a0d   Thumb Code    74  memoryallocator.o(i.memalDescFree)
    memalDescFreeSize                        0x08005a5d   Thumb Code    16  memoryallocator.o(i.memalDescFreeSize)
    memalDescGetAddr                         0x08005a71   Thumb Code    50  memoryallocator.o(i.memalDescGetAddr)
    memalDescInit                            0x08005aa9   Thumb Code    60  memoryallocator.o(i.memalDescInit)
    memalDescSetFlag                         0x08005ae9   Thumb Code    48  memoryallocator.o(i.memalDescSetFlag)
    memalEraseAllData                        0x08005b1d   Thumb Code   140  memoryallocator.o(i.memalEraseAllData)
    memalFillBLK                             0x08005bb1   Thumb Code    58  memoryallocator.o(i.memalFillBLK)
    memalFindBaseListSize                    0x08005bed   Thumb Code    66  memoryallocator.o(i.memalFindBaseListSize)
    memalInit                                0x08005c35   Thumb Code   356  memoryallocator.o(i.memalInit)
    memalMemDescAllocate                     0x08005e55   Thumb Code   138  memoryallocator.o(i.memalMemDescAllocate)
    memalMemPackCut                          0x08005ee9   Thumb Code   230  memoryallocator.o(i.memalMemPackCut)
    memalWriteBLK                            0x08005fd9   Thumb Code   194  memoryallocator.o(i.memalWriteBLK)
    rb_IntToHEX                              0x080060a1   Thumb Code     8  rb_util.o(i.rb_IntToHEX)
    rb_IntToProc                             0x080060a9   Thumb Code   410  rb_util.o(i.rb_IntToProc)
    rb_IntToStr                              0x0800625d   Thumb Code     8  rb_util.o(i.rb_IntToStr)
    rb_fifo_clear                            0x08006265   Thumb Code    12  rb_fifo.o(i.rb_fifo_clear)
    rb_fifo_flush                            0x08006271   Thumb Code    36  rb_fifo.o(i.rb_fifo_flush)
    rb_fifo_free                             0x08006295   Thumb Code    16  rb_fifo.o(i.rb_fifo_free)
    rb_fifo_rd                               0x080062a5   Thumb Code    30  rb_fifo.o(i.rb_fifo_rd)
    rb_fifo_rd_D                             0x080062c3   Thumb Code    98  rb_fifo.o(i.rb_fifo_rd_D)
    rb_fifo_size                             0x08006325   Thumb Code    12  rb_fifo.o(i.rb_fifo_size)
    rb_fifo_wr                               0x08006331   Thumb Code    36  rb_fifo.o(i.rb_fifo_wr)
    rb_fifo_wr_D                             0x08006355   Thumb Code    14  rb_fifo.o(i.rb_fifo_wr_D)
    rb_fifo_wr_blk                           0x08006363   Thumb Code   322  rb_fifo.o(i.rb_fifo_wr_blk)
    wsPoolDigitalPlayer                      0x080064a5   Thumb Code    30  chipay_ws_process.o(i.wsPoolDigitalPlayer)
    wsPoolFlasherMode                        0x080064cd   Thumb Code    18  chipay_ws_process.o(i.wsPoolFlasherMode)
    wsPoolStreamMode                         0x080064e5   Thumb Code    10  chipay_ws_process.o(i.wsPoolStreamMode)
    wsPoolTransMode                          0x080064f5   Thumb Code   484  chipay_ws_process.o(i.wsPoolTransMode)
    fwBootStatic                             0x080067a8   Data        1320  chipay_bootflasher.o(.constdata)
    fwBootFlash                              0x08006cd0   Data         616  chipay_bootflasher.o(.constdata)
    binBootTSL                               0x08006f38   Data        3808  chipay_bootflasher.o(.constdata)
    BFbase64mSTR                             0x08007e38   Data          65  bootflasherf4.o(.constdata)
    Region$$Table$$Base                      0x08007ec0   Number         0  anon$$obj.o(Region$$Table)
    Region$$Table$$Limit                     0x08007f20   Number         0  anon$$obj.o(Region$$Table)
    Load$$LR$$LR_IROM$$Limit                 0x0800b528   Number         0  anon$$obj.o ABSOLUTE
    Image$$EReIROM0$$Base                    0x08100000   Number         0  anon$$obj.o(linker$$defined$$symbols)
    Image$$RW_IRAM2$$Base                    0x10000000   Number         0  anon$$obj.o(linker$$defined$$symbols)
    Image$$RW_IRAM2$$ZI$$Limit               0x10000000   Number         0  anon$$obj.o(linker$$defined$$symbols)
    Image$$RWeIRAM2$$Base                    0x10010000   Number         0  anon$$obj.o(linker$$defined$$symbols)
    Image$$RW_IRAM0$$Base                    0x20000000   Number         0  uldiv.o(.text)
    __aeabi_uldivmod                         0x20000001   Thumb Code    98  uldiv.o(.text)
    toupper                                  0x20000063   Thumb Code    12  toupper.o(.text)
    __aeabi_memcpy                           0x2000006f   Thumb Code    36  memcpya.o(.text)
    __aeabi_memcpy4                          0x2000006f   Thumb Code     0  memcpya.o(.text)
    __aeabi_memcpy8                          0x2000006f   Thumb Code     0  memcpya.o(.text)
    __aeabi_memset                           0x20000093   Thumb Code    14  memseta.o(.text)
    __aeabi_memset4                          0x20000093   Thumb Code     0  memseta.o(.text)
    __aeabi_memset8                          0x20000093   Thumb Code     0  memseta.o(.text)
    __aeabi_memclr                           0x200000a1   Thumb Code     4  memseta.o(.text)
    __aeabi_memclr4                          0x200000a1   Thumb Code     0  memseta.o(.text)
    __aeabi_memclr8                          0x200000a1   Thumb Code     0  memseta.o(.text)
    _memset$wrapper                          0x200000a5   Thumb Code    18  memseta.o(.text)
    strcat                                   0x200000b7   Thumb Code    24  strcat.o(.text)
    strlen                                   0x200000cf   Thumb Code    14  strlen.o(.text)
    strcmp                                   0x200000dd   Thumb Code    28  strcmp.o(.text)
    __aeabi_dadd                             0x200000f9   Thumb Code   322  dadd.o(.text)
    __aeabi_dsub                             0x2000023b   Thumb Code     6  dadd.o(.text)
    __aeabi_drsub                            0x20000241   Thumb Code     6  dadd.o(.text)
    __aeabi_dmul                             0x20000247   Thumb Code   228  dmul.o(.text)
    __aeabi_ddiv                             0x2000032b   Thumb Code   222  ddiv.o(.text)
    __aeabi_ui2d                             0x20000409   Thumb Code    26  dfltui.o(.text)
    __aeabi_d2uiz                            0x20000423   Thumb Code    50  dfixui.o(.text)
    __aeabi_d2ulz                            0x20000455   Thumb Code    48  dfixul.o(.text)
    __aeabi_f2d                              0x20000485   Thumb Code    38  f2d.o(.text)
    __aeabi_cdcmpeq                          0x200004ad   Thumb Code     0  cdcmple.o(.text)
    __aeabi_cdcmple                          0x200004ad   Thumb Code    38  cdcmple.o(.text)
    __aeabi_cdrcmple                         0x200004d5   Thumb Code    38  cdrcmple.o(.text)
    __aeabi_d2f                              0x200004fd   Thumb Code    56  d2f.o(.text)
    __aeabi_llsl                             0x20000535   Thumb Code    30  llshl.o(.text)
    _ll_shift_l                              0x20000535   Thumb Code     0  llshl.o(.text)
    __aeabi_llsr                             0x20000553   Thumb Code    32  llushr.o(.text)
    _ll_ushift_r                             0x20000553   Thumb Code     0  llushr.o(.text)
    __aeabi_lasr                             0x20000573   Thumb Code    36  llsshr.o(.text)
    _ll_sshift_r                             0x20000573   Thumb Code     0  llsshr.o(.text)
    __I$use$fp                               0x20000597   Thumb Code     0  iusefp.o(.text)
    _float_round                             0x20000597   Thumb Code    18  fepilogue.o(.text)
    _float_epilogue                          0x200005a9   Thumb Code    90  fepilogue.o(.text)
    _double_round                            0x20000603   Thumb Code    26  depilogue.o(.text)
    _double_epilogue                         0x2000061d   Thumb Code   164  depilogue.o(.text)
    __ARM_scalbn                             0x200006c1   Thumb Code    46  dscalb.o(.text)
    scalbn                                   0x200006c1   Thumb Code     0  dscalb.o(.text)
    __aeabi_i2d                              0x200006ef   Thumb Code    34  dflti.o(.text)
    _dsqrt                                   0x20000711   Thumb Code   162  dsqrt.o(.text)
    __decompress                             0x200007b3   Thumb Code     0  __dczerorl2.o(.text)
    __decompress1                            0x200007b3   Thumb Code    92  __dczerorl2.o(.text)
    ChipAY_ArmInit                           0x20000811   Thumb Code     2  chipay.o(RAMCODE)
    ChipAY_TiksARM                           0x20000813   Thumb Code   430  chipay.o(RAMCODE)
    ChipAY_DacStep                           0x200009e1   Thumb Code   162  chipay_hardware.o(RAMCODE)
    SchekBootMode                            0x20000a83   Thumb Code    46  chipay_hardware.o(RAMCODE)
    TIM4_IRQHandler                          0x20000ab1   Thumb Code    60  chipay_hardware.o(RAMCODE)
    ChipAY_WriteReg                          0x20000b05   Thumb Code    60  chipay_wildsound.o(RAMCODE)
    ChipAY_Init                              0x20000b41   Thumb Code   194  chipay_wildsound.o(RAMCODE)
    ChipAY_Mixer                             0x20000c03   Thumb Code   644  chipay_wildsound.o(RAMCODE)
    JumpToBootloader                         0x20000eed   Thumb Code    44  chipay_main.o(RAMCODE)
    chMain                                   0x20000f19   Thumb Code    62  chipay_main.o(RAMCODE)
    Long Thumb to Thumb Veneer to cayDigPlayerStreamGet 0x20000f71   Thumb Code    10  anon$$obj.o(Veneer$$Code)
    Long Thumb to Thumb Veneer to TIM_ClearITPendingBit 0x20000f7b   Thumb Code    10  anon$$obj.o(Veneer$$Code)
    Long Thumb to Thumb Veneer to RCC_DeInit 0x20000f85   Thumb Code    10  anon$$obj.o(Veneer$$Code)
    Long Thumb to Thumb Veneer to ListProcADD 0x20000f8f   Thumb Code    10  anon$$obj.o(Veneer$$Code)
    Long Thumb to Thumb Veneer to DoProc     0x20000f99   Thumb Code    10  anon$$obj.o(Veneer$$Code)
    Long Thumb to Thumb Veneer to WaitMS_CheckContinue 0x20000fa3   Thumb Code    10  anon$$obj.o(Veneer$$Code)
    __ARM_fpclassify                         0x20000fad   Thumb Code    48  fpclassify.o(i.__ARM_fpclassify)
    __hardfp_pow                             0x20000fe1   Thumb Code  3132  pow.o(i.__hardfp_pow)
    __kernel_poly                            0x20001c71   Thumb Code   248  poly.o(i.__kernel_poly)
    __mathlib_dbl_underflow                  0x20001d69   Thumb Code    24  dunder.o(i.__mathlib_dbl_underflow)
    __set_errno                              0x20001d89   Thumb Code     6  errno.o(i.__set_errno)
    fabs                                     0x20001d95   Thumb Code    32  fabs.o(i.fabs)
    malloc                                   0x20001db5   Thumb Code    92  malloc.o(i.malloc)
    sqrt                                     0x20001e21   Thumb Code   110  sqrt.o(i.sqrt)
    __mathlib_zero                           0x20001f18   Data           8  qnan.o(.constdata)
    VolTBAL                                  0x20001f20   Data          32  chipay_wildsound.o(RAMCODE)
    VolTBAR                                  0x20001f40   Data          32  chipay_wildsound.o(RAMCODE)
    VolTBBL                                  0x20001f60   Data          32  chipay_wildsound.o(RAMCODE)
    VolTBBR                                  0x20001f80   Data          32  chipay_wildsound.o(RAMCODE)
    VolTBCL                                  0x20001fa0   Data          32  chipay_wildsound.o(RAMCODE)
    VolTBCR                                  0x20001fc0   Data          32  chipay_wildsound.o(RAMCODE)
    EnvRndTAB                                0x20001fe0   Data         768  chipay_wildsound.o(RAMCODE)
    malDesc                                  0x200022e0   Data           4  memoryallocator.o(.data)
    chipAY_StreamFifoIN                      0x200022e4   Data          16  chipay_streamdata.o(.data)
    chipAY_StreamFifoOUT                     0x200022f4   Data          16  chipay_streamdata.o(.data)
    chipAY_Stream                            0x20002304   Data          76  chipay_streamdata.o(.data)
    fbufp                                    0x20002388   Data           2  bootflasherf4.o(.data)
    faddr                                    0x2000238c   Data           4  bootflasherf4.o(.data)
    bflRecBlocksStart                        0x20002390   Data           4  bootflasherf4.o(.data)
    bflRecBlocksSize                         0x20002394   Data           4  bootflasherf4.o(.data)
    bflRecBlocksNum                          0x20002398   Data           4  bootflasherf4.o(.data)
    SPI3DMAbufferTx                          0x200023ac   Data           2  hardware.o(.data)
    SPI3DMAbufferRx                          0x200023ae   Data           2  hardware.o(.data)
    isRbousCFG                               0x200023b0   Data           1  hardware.o(.data)
    uart_RS_fifo_in                          0x200023b4   Data          16  interface.o(.data)
    uart_RS_fifo_out                         0x200023c4   Data          16  interface.o(.data)
    PCLK1_NOP                                0x200023d4   Data           2  hdtimers.o(.data)
    Timer_CounterX                           0x200023d8   Data           4  hdtimers.o(.data)
    Timer_1mcs_CounterX                      0x200023dc   Data           4  hdtimers.o(.data)
    Timer_1ms_CounterX                       0x200023e0   Data           4  hdtimers.o(.data)
    __microlib_freelist                      0x200023f0   Data           4  mvars.o(.data)
    __microlib_freelist_initialised          0x200023f4   Data           4  mvars.o(.data)
    DAC_CHP                                  0x200023fc   Data           1  chipay_hardware.o(RAMCODE)
    ayDacVAL0                                0x20002400   Data           4  chipay_hardware.o(RAMCODE)
    ayDacVAL1                                0x20002404   Data           4  chipay_hardware.o(RAMCODE)
    ayDacVAL2                                0x20002408   Data           4  chipay_hardware.o(RAMCODE)
    ayStr                                    0x20002412   Data         660  chipay_wildsound.o(RAMCODE)
    ad                                       0x200026a6   Data           1  chipay_wildsound.o(RAMCODE)
    process_main_list                        0x200026a8   Data          16  chipay_main.o(RAMCODE)
    process_main                             0x200026b8   Data          20  chipay_main.o(RAMCODE)
    process_aydac                            0x200026cc   Data          20  chipay_main.o(RAMCODE)
    process_aydac_list                       0x200026e0   Data          16  chipay_main.o(RAMCODE)
    process_main_timers_buf                  0x200026f0   Data           4  chipay_main.o(RAMCODE)
    process_main_list_buf                    0x200026f4   Data           8  chipay_main.o(RAMCODE)
    process_aydac_timers_buf                 0x200026fc   Data           4  chipay_main.o(RAMCODE)
    process_aydac_list_buf                   0x20002700   Data           8  chipay_main.o(RAMCODE)
    digPlayer                                0x20002708   Data       14720  chipay_digitalplayer.o(.bss)
    malBaseList                              0x20006088   Data         128  memoryallocator.o(.bss)
    chipAY_StreamFifoIN_buf                  0x20006108   Data         128  chipay_streamdata.o(.bss)
    chipAY_StreamFifoOUT_buf                 0x20006188   Data         128  chipay_streamdata.o(.bss)
    fbuf                                     0x20006208   Data          81  bootflasherf4.o(.bss)
    bflImgRec                                0x20006259   Data          42  bootflasherf4.o(.bss)
    uart_RS_fifo_in_buf                      0x20006283   Data         256  interface.o(.bss)
    uart_RS_fifo_out_buf                     0x20006383   Data          32  interface.o(.bss)
    MPU_ClocksStatus                         0x200063a4   Data          16  hdtimers.o(.bss)
    __heap_base                              0x200063b8   Data           0  startup_stm32f40_41xxx.o(HEAP)
    DAC_CHL                                  0x200065b8   Data          10  chipay_hardware.o(RAMCODE)
    __heap_limit                             0x200065b8   Data           0  startup_stm32f40_41xxx.o(HEAP)
    DAC_CHR                                  0x200065c2   Data          10  chipay_hardware.o(RAMCODE)
    process_main_call_buf                    0x200065cc   Data          16  chipay_main.o(RAMCODE)
    process_aydac_call_buf                   0x200065dc   Data          16  chipay_main.o(RAMCODE)
    Image$$RW_IRAM0$$ZI$$Limit               0x200068f0   Number         0  startup_stm32f40_41xxx.o(STACK)
    __ADDR_ram_free                          0x200068f0   Data           0  startup_stm32f40_41xxx.o(STACK)
    __initial_sp                             0x200068f0   Data           0  startup_stm32f40_41xxx.o(STACK)
    Long Thumb to Thumb Veneer to cayStrmFlagGet 0x20018001   Thumb Code    10  anon$$obj.o(Veneer$$Code)
    Image$$RW_IRAM1$$Base                    0x20018000   Number         0  anon$$obj.o(Veneer$$Code)
    Image$$RWeIRAM0$$Base                    0x20018000   Number         0  anon$$obj.o(linker$$defined$$symbols)
    Long Thumb to Thumb Veneer to cayStrmFifoOUwrFree 0x2001800b   Thumb Code    10  anon$$obj.o(Veneer$$Code)
    Long Thumb to Thumb Veneer to cayStrmFifoINwrSize 0x20018015   Thumb Code    10  anon$$obj.o(Veneer$$Code)
    Long Thumb to Thumb Veneer to Read_RS_Size 0x2001801f   Thumb Code    10  anon$$obj.o(Veneer$$Code)
    Long Thumb to Thumb Veneer to Read_RS_Byte 0x20018029   Thumb Code    10  anon$$obj.o(Veneer$$Code)
    Long Thumb to Thumb Veneer to Send_RS_FREEBusy 0x20018033   Thumb Code    10  anon$$obj.o(Veneer$$Code)
    Long Thumb to Thumb Veneer to Timer_1ms_CounterUpdate 0x2001803d   Thumb Code    10  anon$$obj.o(Veneer$$Code)
    Long Thumb to Thumb Veneer to Send_RS_B  0x20018047   Thumb Code    10  anon$$obj.o(Veneer$$Code)
    Long Thumb to Thumb Veneer to cayStrmClear 0x20018051   Thumb Code    10  anon$$obj.o(Veneer$$Code)
    Long Thumb to Thumb Veneer to cayStrmCmdSet 0x2001805b   Thumb Code    10  anon$$obj.o(Veneer$$Code)
    Long Thumb to Thumb Veneer to cayStrmFifoOUwrB 0x20018065   Thumb Code    10  anon$$obj.o(Veneer$$Code)
    Long Thumb to Thumb Veneer to cayStrmFlagSet 0x2001806f   Thumb Code    10  anon$$obj.o(Veneer$$Code)
    EXTI01_extProc                           0x20018079   Thumb Code    76  chipay_interrupt.o(ccmram)
    TIM3_IRQHandler                          0x20018079   Thumb Code     0  chipay_interrupt.o(ccmram)
    prcAY0prcR00                             0x200180d1   Thumb Code    26  chipay_interrupt.o(ccmram)
    prcAY0prcR02                             0x200180eb   Thumb Code    26  chipay_interrupt.o(ccmram)
    prcAY0prcR04                             0x20018105   Thumb Code    26  chipay_interrupt.o(ccmram)
    prcAY0prcR06                             0x2001811f   Thumb Code    30  chipay_interrupt.o(ccmram)
    prcAY0prcR0B                             0x2001813d   Thumb Code    28  chipay_interrupt.o(ccmram)
    prcAY0prcR0D                             0x20018159   Thumb Code    14  chipay_interrupt.o(ccmram)
    prcAY0prcR18                             0x20018167   Thumb Code    16  chipay_interrupt.o(ccmram)
    prcAY0prcR19                             0x20018177   Thumb Code    18  chipay_interrupt.o(ccmram)
    prcAY0prcR1A                             0x20018189   Thumb Code    18  chipay_interrupt.o(ccmram)
    prcAY1prcR00                             0x2001819b   Thumb Code    28  chipay_interrupt.o(ccmram)
    prcAY1prcR02                             0x200181b7   Thumb Code    28  chipay_interrupt.o(ccmram)
    prcAY1prcR04                             0x200181d3   Thumb Code    30  chipay_interrupt.o(ccmram)
    prcAY1prcR06                             0x200181f1   Thumb Code    28  chipay_interrupt.o(ccmram)
    prcAY1prcR0B                             0x2001820d   Thumb Code    32  chipay_interrupt.o(ccmram)
    prcAY1prcR0D                             0x2001822d   Thumb Code    14  chipay_interrupt.o(ccmram)
    prcAY1prcR18                             0x2001823b   Thumb Code    20  chipay_interrupt.o(ccmram)
    prcAY1prcR19                             0x2001824f   Thumb Code    20  chipay_interrupt.o(ccmram)
    prcAY1prcR1A                             0x20018263   Thumb Code    20  chipay_interrupt.o(ccmram)
    prcAYRprcR0E                             0x20018277   Thumb Code    76  chipay_interrupt.o(ccmram)
    prcAYWprcR0E                             0x200182c3   Thumb Code    94  chipay_interrupt.o(ccmram)
    prcAYprcNULL                             0x20018321   Thumb Code     2  chipay_interrupt.o(ccmram)
    EXT_DoAyBusUpdate                        0x20018323   Thumb Code   108  chipay_interrupt.o(ccmram)
    EXT_DoWsReadStopString                   0x2001838f   Thumb Code    14  chipay_interrupt.o(ccmram)
    EXT_DoWsStreamCalcCRCstp                 0x2001839d   Thumb Code    42  chipay_interrupt.o(ccmram)
    EXT_DoWsStreamCalcCRC                    0x200183c7   Thumb Code    86  chipay_interrupt.o(ccmram)
    EXT_DoWsStreamStatus                     0x2001841d   Thumb Code    86  chipay_interrupt.o(ccmram)
    EXT_DoWsStreamGetStatusByte              0x20018473   Thumb Code   216  chipay_interrupt.o(ccmram)
    EXT_DoWsBusReadData                      0x2001854b   Thumb Code   394  chipay_interrupt.o(ccmram)
    EXT_DoWsBusWriteAddr                     0x200186d5   Thumb Code   514  chipay_interrupt.o(ccmram)
    EXT_DoWsBusWriteData                     0x200188d7   Thumb Code   724  chipay_interrupt.o(ccmram)
    EXT_DoAyBusReg                           0x20018bab   Thumb Code   340  chipay_interrupt.o(ccmram)
    TSL_AYX32_M_DEVSIG                       0x20018d34   Data           2  chipay_interrupt.o(ccmram)
    outDataForTslPort                        0x20018d38   Data        1024  chipay_interrupt.o(ccmram)
    tbl_AYREGPER_proc                        0x20019138   Data         256  chipay_interrupt.o(ccmram)
    LOCKSTRING                               0x20019238   Data          19  chipay_interrupt.o(ccmram)
    WILDdataINFO                             0x2001924b   Data          24  chipay_interrupt.o(ccmram)
    WILDfwVer                                0x20019266   Data           6  chipay_interrupt.o(ccmram)
    WILDdataVER                              0x2001926c   Data          21  chipay_interrupt.o(ccmram)
    vectorTable_RAM                          0x20019300   Data        1024  hdinterrupt.o(ccmram)
    WILDwsVER                                0x20019700   Data          32  chipay_interrupt.o(ccmram)
    Image$$RW_IRAM1$$ZI$$Limit               0x20019720   Number         0  chipay_interrupt.o(ccmram)
    Image$$RWeIRAM1$$Base                    0x20020000   Number         0  anon$$obj.o(linker$$defined$$symbols)



==============================================================================

Memory Map of the image

  Image Entry point : 0x08000189

  Load Region LR_IROM (Base: 0x08000000, Size: 0x0000bd28, Max: 0x00100000, ABSOLUTE, COMPRESSED[0x0000b528])

    Execution Region ER_IROM0 (Base: 0x08000000, Size: 0x00007f20, Max: 0x00100000, ABSOLUTE)

    Base Addr    Size         Type   Attr      Idx    E Section Name        Object

    0x08000000   0x00000188   Data   RO            3    RESET               startup_stm32f40_41xxx.o
    0x08000188   0x00000000   Code   RO         6316  * .ARM.Collect$$$$00000000  mc_w.l(entry.o)
    0x08000188   0x00000004   Code   RO         6410    .ARM.Collect$$$$00000001  mc_w.l(entry2.o)
    0x0800018c   0x00000004   Code   RO         6413    .ARM.Collect$$$$00000004  mc_w.l(entry5.o)
    0x08000190   0x00000000   Code   RO         6415    .ARM.Collect$$$$00000008  mc_w.l(entry7b.o)
    0x08000190   0x00000000   Code   RO         6417    .ARM.Collect$$$$0000000A  mc_w.l(entry8b.o)
    0x08000190   0x00000008   Code   RO         6418    .ARM.Collect$$$$0000000B  mc_w.l(entry9a.o)
    0x08000198   0x00000000   Code   RO         6420    .ARM.Collect$$$$0000000D  mc_w.l(entry10a.o)
    0x08000198   0x00000000   Code   RO         6422    .ARM.Collect$$$$0000000F  mc_w.l(entry11a.o)
    0x08000198   0x00000004   Code   RO         6411    .ARM.Collect$$$$00002712  mc_w.l(entry2.o)
    0x0800019c   0x00000028   Code   RO         1140    .emb_text           bootflasherf4.o
    0x080001c4   0x00000024   Code   RO            4    .text               startup_stm32f40_41xxx.o
    0x080001e8   0x00000024   Code   RO         6450    .text               mc_w.l(init.o)
    0x0800020c   0x0000072c   Code   RO          936    ROMCODE             chipay_interrupt.o
    0x08000938   0x0000000a   Ven    RO         6470    Veneer$$Code        anon$$obj.o
    0x08000942   0x0000000a   Ven    RO         6471    Veneer$$Code        anon$$obj.o
    0x0800094c   0x0000000a   Ven    RO         6472    Veneer$$Code        anon$$obj.o
    0x08000956   0x0000000a   Ven    RO         6473    Veneer$$Code        anon$$obj.o
    0x08000960   0x0000000a   Ven    RO         6474    Veneer$$Code        anon$$obj.o
    0x0800096a   0x0000000a   Ven    RO         6475    Veneer$$Code        anon$$obj.o
    0x08000974   0x0000000a   Ven    RO         6476    Veneer$$Code        anon$$obj.o
    0x0800097e   0x0000000a   Ven    RO         6477    Veneer$$Code        anon$$obj.o
    0x08000988   0x0000000a   Ven    RO         6478    Veneer$$Code        anon$$obj.o
    0x08000992   0x0000000a   Ven    RO         6479    Veneer$$Code        anon$$obj.o
    0x0800099c   0x0000000a   Ven    RO         6480    Veneer$$Code        anon$$obj.o
    0x080009a6   0x0000000a   Ven    RO         6481    Veneer$$Code        anon$$obj.o
    0x080009b0   0x0000000a   Ven    RO         6482    Veneer$$Code        anon$$obj.o
    0x080009ba   0x0000000a   Ven    RO         6483    Veneer$$Code        anon$$obj.o
    0x080009c4   0x0000000a   Ven    RO         6484    Veneer$$Code        anon$$obj.o
    0x080009ce   0x0000000a   Ven    RO         6485    Veneer$$Code        anon$$obj.o
    0x080009d8   0x0000000a   Ven    RO         6486    Veneer$$Code        anon$$obj.o
    0x080009e2   0x0000000a   Ven    RO         6487    Veneer$$Code        anon$$obj.o
    0x080009ec   0x0000000a   Ven    RO         6488    Veneer$$Code        anon$$obj.o
    0x080009f6   0x0000000a   Ven    RO         6489    Veneer$$Code        anon$$obj.o
    0x08000a00   0x0000000a   Ven    RO         6490    Veneer$$Code        anon$$obj.o
    0x08000a0a   0x0000000a   Ven    RO         6491    Veneer$$Code        anon$$obj.o
    0x08000a14   0x0000000a   Ven    RO         6492    Veneer$$Code        anon$$obj.o
    0x08000a1e   0x0000000a   Ven    RO         6493    Veneer$$Code        anon$$obj.o
    0x08000a28   0x0000000a   Ven    RO         6494    Veneer$$Code        anon$$obj.o
    0x08000a32   0x0000000a   Ven    RO         6495    Veneer$$Code        anon$$obj.o
    0x08000a3c   0x0000000a   Ven    RO         6496    Veneer$$Code        anon$$obj.o
    0x08000a46   0x0000000a   Ven    RO         6497    Veneer$$Code        anon$$obj.o
    0x08000a50   0x0000000a   Ven    RO         6498    Veneer$$Code        anon$$obj.o
    0x08000a5a   0x00000026   Code   RO          327    i.CallProc          process.o
    0x08000a80   0x00000018   Code   RO         2473    i.DAC_Cmd           stm32f4xx_dac.o
    0x08000a98   0x00000018   Code   RO         2474    i.DAC_DMACmd        stm32f4xx_dac.o
    0x08000ab0   0x00000028   Code   RO         2481    i.DAC_Init          stm32f4xx_dac.o
    0x08000ad8   0x0000002c   Code   RO         2741    i.DMA_ClearFlag     stm32f4xx_dma.o
    0x08000b04   0x00000014   Code   RO         2743    i.DMA_Cmd           stm32f4xx_dma.o
    0x08000b18   0x00000034   Code   RO         2754    i.DMA_ITConfig      stm32f4xx_dma.o
    0x08000b4c   0x00000054   Code   RO         2755    i.DMA_Init          stm32f4xx_dma.o
    0x08000ba0   0x00000090   Code   RO         6153    i.DelayMCS          hdtimers.o
    0x08000c30   0x0000009c   Code   RO         6154    i.DelayMS           hdtimers.o
    0x08000ccc   0x00000080   Code   RO          328    i.DoProc            process.o
    0x08000d4c   0x00000078   Code   RO          938    i.EXTI15_10_IRQHandler  chipay_interrupt.o
    0x08000dc4   0x0000004c   Code   RO          939    i.EXTI2_IRQHandler  chipay_interrupt.o
    0x08000e10   0x00000078   Code   RO          940    i.EXTI9_5_IRQHandler  chipay_interrupt.o
    0x08000e88   0x0000000c   Code   RO         2873    i.EXTI_ClearITPendingBit  stm32f4xx_exti.o
    0x08000e94   0x00000070   Code   RO         2878    i.EXTI_Init         stm32f4xx_exti.o
    0x08000f04   0x0000000c   Code   RO         2937    i.FLASH_ClearFlag   stm32f4xx_flash.o
    0x08000f10   0x0000001c   Code   RO         2938    i.FLASH_DataCacheCmd  stm32f4xx_flash.o
    0x08000f2c   0x00000010   Code   RO         2939    i.FLASH_DataCacheReset  stm32f4xx_flash.o
    0x08000f3c   0x00000018   Code   RO         1141    i.FLASH_ErasePage   bootflasherf4.o
    0x08000f54   0x0000006c   Code   RO         2941    i.FLASH_EraseSector  stm32f4xx_flash.o
    0x08000fc0   0x00000034   Code   RO         2943    i.FLASH_GetStatus   stm32f4xx_flash.o
    0x08000ff4   0x0000001c   Code   RO         2945    i.FLASH_InstructionCacheCmd  stm32f4xx_flash.o
    0x08001010   0x00000010   Code   RO         2946    i.FLASH_InstructionCacheReset  stm32f4xx_flash.o
    0x08001020   0x00000010   Code   RO         2947    i.FLASH_Lock        stm32f4xx_flash.o
    0x08001030   0x00000024   Code   RO         2956    i.FLASH_OB_Unlock   stm32f4xx_flash.o
    0x08001054   0x0000001c   Code   RO         2959    i.FLASH_PrefetchBufferCmd  stm32f4xx_flash.o
    0x08001070   0x0000003c   Code   RO         2962    i.FLASH_ProgramHalfWord  stm32f4xx_flash.o
    0x080010ac   0x0000000c   Code   RO         2964    i.FLASH_SetLatency  stm32f4xx_flash.o
    0x080010b8   0x00000024   Code   RO         2965    i.FLASH_Unlock      stm32f4xx_flash.o
    0x080010dc   0x0000001e   Code   RO         2966    i.FLASH_WaitForLastOperation  stm32f4xx_flash.o
    0x080010fa   0x000000a2   Code   RO         3266    i.GPIO_Init         stm32f4xx_gpio.o
    0x0800119c   0x00000020   Code   RO         3267    i.GPIO_PinAFConfig  stm32f4xx_gpio.o
    0x080011bc   0x00000030   Code   RO         5807    i.Init              hardware.o
    0x080011ec   0x00000018   Code   RO          329    i.ListProcADD       process.o
    0x08001204   0x00000028   Code   RO          330    i.ListProcRoll      process.o
    0x0800122c   0x00000064   Code   RO         1757    i.NVIC_Init         misc.o
    0x08001290   0x00000314   Code   RO          184    i.PerFrCalc         chipay_digitalplayer.o
    0x080015a4   0x00000018   Code   RO         3888    i.RCC_AHB1PeriphClockCmd  stm32f4xx_rcc.o
    0x080015bc   0x00000018   Code   RO         3891    i.RCC_AHB2PeriphClockCmd  stm32f4xx_rcc.o
    0x080015d4   0x00000018   Code   RO         3897    i.RCC_APB1PeriphClockCmd  stm32f4xx_rcc.o
    0x080015ec   0x00000018   Code   RO         3899    i.RCC_APB1PeriphResetCmd  stm32f4xx_rcc.o
    0x08001604   0x00000018   Code   RO         3900    i.RCC_APB2PeriphClockCmd  stm32f4xx_rcc.o
    0x0800161c   0x00000018   Code   RO         3902    i.RCC_APB2PeriphResetCmd  stm32f4xx_rcc.o
    0x08001634   0x0000013e   Code   RO         5808    i.RCC_Configuration  hardware.o
    0x08001772   0x00000002   PAD
    0x08001774   0x0000003c   Code   RO         3908    i.RCC_DeInit        stm32f4xx_rcc.o
    0x080017b0   0x00000084   Code   RO         3909    i.RCC_GetClocksFreq  stm32f4xx_rcc.o
    0x08001834   0x00000034   Code   RO         3910    i.RCC_GetFlagStatus  stm32f4xx_rcc.o
    0x08001868   0x00000014   Code   RO         3913    i.RCC_HCLKConfig    stm32f4xx_rcc.o
    0x0800187c   0x00000010   Code   RO         3914    i.RCC_HSEConfig     stm32f4xx_rcc.o
    0x0800188c   0x00000014   Code   RO         3922    i.RCC_PCLK1Config   stm32f4xx_rcc.o
    0x080018a0   0x00000014   Code   RO         3923    i.RCC_PCLK2Config   stm32f4xx_rcc.o
    0x080018b4   0x0000000c   Code   RO         3924    i.RCC_PLLCmd        stm32f4xx_rcc.o
    0x080018c0   0x00000028   Code   RO         3925    i.RCC_PLLConfig     stm32f4xx_rcc.o
    0x080018e8   0x00000014   Code   RO         3930    i.RCC_SYSCLKConfig  stm32f4xx_rcc.o
    0x080018fc   0x0000002c   Code   RO         3931    i.RCC_WaitForHSEStartUp  stm32f4xx_rcc.o
    0x08001928   0x0000001c   Code   RO         4173    i.RNG_Cmd           stm32f4xx_rng.o
    0x08001944   0x00000012   Code   RO          469    i.RNG_Config        main.o
    0x08001956   0x00000002   PAD
    0x08001958   0x00000020   Code   RO         5870    i.Read_RS_Byte      interface.o
    0x08001978   0x0000000c   Code   RO         5872    i.Read_RS_Size      interface.o
    0x08001984   0x0000001a   Code   RO          331    i.ReturnProc        process.o
    0x0800199e   0x00000014   Code   RO         4793    i.SPI_Cmd           stm32f4xx_spi.o
    0x080019b2   0x00000010   Code   RO         4799    i.SPI_I2S_DMACmd    stm32f4xx_spi.o
    0x080019c2   0x00000002   PAD
    0x080019c4   0x00000054   Code   RO         4800    i.SPI_I2S_DeInit    stm32f4xx_spi.o
    0x08001a18   0x00000038   Code   RO         4806    i.SPI_Init          stm32f4xx_spi.o
    0x08001a50   0x00000018   Code   RO         4807    i.SPI_NSSInternalSoftwareConfig  stm32f4xx_spi.o
    0x08001a68   0x00000014   Code   RO         4808    i.SPI_SSOutputCmd   stm32f4xx_spi.o
    0x08001a7c   0x00000028   Code   RO         4957    i.SYSCFG_EXTILineConfig  stm32f4xx_syscfg.o
    0x08001aa4   0x0000017c   Code   RO         5809    i.SelectInitGPIO    hardware.o
    0x08001c20   0x00000030   Code   RO         5873    i.Send_RS_B         interface.o
    0x08001c50   0x000000a8   Code   RO         5875    i.Send_RS_Buf       interface.o
    0x08001cf8   0x0000000c   Code   RO         5876    i.Send_RS_Byte      interface.o
    0x08001d04   0x0000000c   Code   RO         5878    i.Send_RS_DEC       interface.o
    0x08001d10   0x00000034   Code   RO         5881    i.Send_RS_FREEBusy  interface.o
    0x08001d44   0x00000010   Code   RO         5882    i.Send_RS_HEX       interface.o
    0x08001d54   0x00000074   Code   RO         5883    i.Send_RS_Hold      interface.o
    0x08001dc8   0x00000014   Code   RO         5886    i.Send_RS_String    interface.o
    0x08001ddc   0x000001fc   Code   RO         5810    i.SetupSPI          hardware.o
    0x08001fd8   0x0000008c   Code   RO          591    i.ShowMalBaseRec    memoryallocator.o
    0x08002064   0x000000ac   Code   RO          470    i.ShowStartInfo     main.o
    0x08002110   0x0000001c   Code   RO         5811    i.SystemInit        hardware.o
    0x0800212c   0x0000002e   Code   RO         5004    i.TI1_Config        stm32f4xx_tim.o
    0x0800215a   0x00000036   Code   RO         5005    i.TI2_Config        stm32f4xx_tim.o
    0x08002190   0x00000022   Code   RO         5007    i.TIM_BDTRConfig    stm32f4xx_tim.o
    0x080021b2   0x00000012   Code   RO         5008    i.TIM_BDTRStructInit  stm32f4xx_tim.o
    0x080021c4   0x00000006   Code   RO         5013    i.TIM_ClearITPendingBit  stm32f4xx_tim.o
    0x080021ca   0x00000014   Code   RO         5018    i.TIM_Cmd           stm32f4xx_tim.o
    0x080021de   0x00000010   Code   RO         5021    i.TIM_DMACmd        stm32f4xx_tim.o
    0x080021ee   0x000000ac   Code   RO         5041    i.TIM_ICInit        stm32f4xx_tim.o
    0x0800229a   0x00000010   Code   RO         5043    i.TIM_ITConfig      stm32f4xx_tim.o
    0x080022aa   0x00000002   PAD
    0x080022ac   0x00000060   Code   RO         5047    i.TIM_OC1Init       stm32f4xx_tim.o
    0x0800230c   0x0000000c   Code   RO         5050    i.TIM_OC1PreloadConfig  stm32f4xx_tim.o
    0x08002318   0x00000080   Code   RO         5052    i.TIM_OC2Init       stm32f4xx_tim.o
    0x08002398   0x00000014   Code   RO         5055    i.TIM_OC2PreloadConfig  stm32f4xx_tim.o
    0x080023ac   0x0000007c   Code   RO         5057    i.TIM_OC3Init       stm32f4xx_tim.o
    0x08002428   0x0000000c   Code   RO         5060    i.TIM_OC3PreloadConfig  stm32f4xx_tim.o
    0x08002434   0x00000060   Code   RO         5062    i.TIM_OC4Init       stm32f4xx_tim.o
    0x08002494   0x00000014   Code   RO         5064    i.TIM_OC4PreloadConfig  stm32f4xx_tim.o
    0x080024a8   0x0000000c   Code   RO         5072    i.TIM_SelectInputTrigger  stm32f4xx_tim.o
    0x080024b4   0x00000010   Code   RO         5073    i.TIM_SelectMasterSlaveMode  stm32f4xx_tim.o
    0x080024c4   0x00000010   Code   RO         5076    i.TIM_SelectOutputTrigger  stm32f4xx_tim.o
    0x080024d4   0x00000010   Code   RO         5077    i.TIM_SelectSlaveMode  stm32f4xx_tim.o
    0x080024e4   0x00000010   Code   RO         5085    i.TIM_SetIC1Prescaler  stm32f4xx_tim.o
    0x080024f4   0x00000018   Code   RO         5086    i.TIM_SetIC2Prescaler  stm32f4xx_tim.o
    0x0800250c   0x00000010   Code   RO         5087    i.TIM_SetIC3Prescaler  stm32f4xx_tim.o
    0x0800251c   0x00000018   Code   RO         5088    i.TIM_SetIC4Prescaler  stm32f4xx_tim.o
    0x08002534   0x0000007c   Code   RO         5090    i.TIM_TimeBaseInit  stm32f4xx_tim.o
    0x080025b0   0x00000012   Code   RO         5091    i.TIM_TimeBaseStructInit  stm32f4xx_tim.o
    0x080025c2   0x00000002   PAD
    0x080025c4   0x00000064   Code   RO         6159    i.TimerCounterUpdate  hdtimers.o
    0x08002628   0x00000064   Code   RO         6161    i.Timer_1ms_CounterUpdate  hdtimers.o
    0x0800268c   0x000000b0   Code   RO         5890    i.USART1_GPIO       interface.o
    0x0800273c   0x00000080   Code   RO         5891    i.USART1_IRQHandler  interface.o
    0x080027bc   0x00000014   Code   RO         5558    i.USART_Cmd         stm32f4xx_usart.o
    0x080027d0   0x0000000e   Code   RO         5561    i.USART_GetFlagStatus  stm32f4xx_usart.o
    0x080027de   0x0000003e   Code   RO         5562    i.USART_GetITStatus  stm32f4xx_usart.o
    0x0800281c   0x00000030   Code   RO         5564    i.USART_ITConfig    stm32f4xx_usart.o
    0x0800284c   0x000000b8   Code   RO         5565    i.USART_Init        stm32f4xx_usart.o
    0x08002904   0x00000008   Code   RO         5572    i.USART_ReceiveData  stm32f4xx_usart.o
    0x0800290c   0x00000008   Code   RO         5575    i.USART_SendData    stm32f4xx_usart.o
    0x08002914   0x000000d0   Code   RO         5896    i.Uart_RS_Init      interface.o
    0x080029e4   0x00000032   Code   RO         6169    i.WaitMS_CheckContinue  hdtimers.o
    0x08002a16   0x00000038   Code   RO          185    i.XM_ChekSongEND    chipay_digitalplayer.o
    0x08002a4e   0x00000002   PAD
    0x08002a50   0x00000ebc   Code   RO          186    i.XM_Player_STEP    chipay_digitalplayer.o
    0x0800390c   0x0000000e   Code   RO         6462    i.__scatterload_copy  mc_w.l(handlers.o)
    0x0800391a   0x00000002   Code   RO         6463    i.__scatterload_null  mc_w.l(handlers.o)
    0x0800391c   0x0000000e   Code   RO         6464    i.__scatterload_zeroinit  mc_w.l(handlers.o)
    0x0800392a   0x00000002   PAD
    0x0800392c   0x00000028   Code   RO         1142    i.bflBootBlockAddr  bootflasherf4.o
    0x08003954   0x0000000c   Code   RO         1144    i.bflBootBlockPTR   bootflasherf4.o
    0x08003960   0x00000060   Code   RO         1145    i.bflBootBlocks     bootflasherf4.o
    0x080039c0   0x00000028   Code   RO         1146    i.bflBootBlocksGetCRC  bootflasherf4.o
    0x080039e8   0x0000002c   Code   RO         1147    i.bflBootCheckNeedFlashing  bootflasherf4.o
    0x08003a14   0x0000001a   Code   RO         1149    i.bflBootExtremalExecuteBlock  bootflasherf4.o
    0x08003a2e   0x0000001c   Code   RO         1150    i.bflBootExtremalExecuteBlockType  bootflasherf4.o
    0x08003a4a   0x0000002e   Code   RO         1151    i.bflBootFindByType  bootflasherf4.o
    0x08003a78   0x00000016   Code   RO         1152    i.bflBootFlashDisable  bootflasherf4.o
    0x08003a8e   0x00000022   Code   RO         1160    i.bflFlashErase     bootflasherf4.o
    0x08003ab0   0x00000052   Code   RO         1161    i.bflFlashEraseAlignBLK  bootflasherf4.o
    0x08003b02   0x00000052   Code   RO         1162    i.bflFlashSectorCfg  bootflasherf4.o
    0x08003b54   0x0000006e   Code   RO         1163    i.bflFlashWriteBlock  bootflasherf4.o
    0x08003bc2   0x00000022   Code   RO         1164    i.bflImageAddBlock  bootflasherf4.o
    0x08003be4   0x000000b8   Code   RO         1165    i.bflImageAddBlockA  bootflasherf4.o
    0x08003c9c   0x00000064   Code   RO         1166    i.bflImageFinish    bootflasherf4.o
    0x08003d00   0x0000002c   Code   RO         1167    i.bflImageStart     bootflasherf4.o
    0x08003d2c   0x00000130   Code   RO          187    i.cayDigPlayerExtractLine  chipay_digitalplayer.o
    0x08003e5c   0x00000074   Code   RO          188    i.cayDigPlayerExtractLineShow  chipay_digitalplayer.o
    0x08003ed0   0x0000012c   Code   RO          189    i.cayDigPlayerGetPatDataSTR  chipay_digitalplayer.o
    0x08003ffc   0x0000005e   Code   RO          190    i.cayDigPlayerGoToPatLine  chipay_digitalplayer.o
    0x0800405a   0x00000034   Code   RO          191    i.cayDigPlayerGoToPosLine  chipay_digitalplayer.o
    0x0800408e   0x000000d8   Code   RO          192    i.cayDigPlayerInit  chipay_digitalplayer.o
    0x08004166   0x00000002   PAD
    0x08004168   0x000000d8   Code   RO          193    i.cayDigPlayerPool  chipay_digitalplayer.o
    0x08004240   0x000000dc   Code   RO          194    i.cayDigPlayerSTEP  chipay_digitalplayer.o
    0x0800431c   0x00000030   Code   RO          195    i.cayDigPlayerSetSamplePos  chipay_digitalplayer.o
    0x0800434c   0x00000018   Code   RO          196    i.cayDigPlayerStreamFree  chipay_digitalplayer.o
    0x08004364   0x00000032   Code   RO          197    i.cayDigPlayerStreamGet  chipay_digitalplayer.o
    0x08004396   0x00000012   Code   RO          198    i.cayDigPlayerStreamSize  chipay_digitalplayer.o
    0x080043a8   0x00000010   Code   RO          199    i.cayDigPlayerStreamWRStep  chipay_digitalplayer.o
    0x080043b8   0x000000c6   Code   RO           13    i.cayDigSmpAllocateInstrument  chipay_digitalsample.o
    0x0800447e   0x00000054   Code   RO           14    i.cayDigSmpAllocateInstrumentCreatBlank  chipay_digitalsample.o
    0x080044d2   0x00000002   PAD
    0x080044d4   0x000000b0   Code   RO           15    i.cayDigSmpCalcFreq  chipay_digitalsample.o
    0x08004584   0x0000016e   Code   RO           16    i.cayDigSmpGenerateBUF  chipay_digitalsample.o
    0x080046f2   0x00000050   Code   RO           17    i.cayDigSmpInstrumentAddByte  chipay_digitalsample.o
    0x08004742   0x00000032   Code   RO           18    i.cayDigSmpSetPos   chipay_digitalsample.o
    0x08004774   0x000000c4   Code   RO          769    i.cayStrmCacheDescMemParsingINSH  chipay_streamdata.o
    0x08004838   0x00000004   Code   RO          770    i.cayStrmCacheDescMemParsingNOP  chipay_streamdata.o
    0x0800483c   0x000000a4   Code   RO          771    i.cayStrmCacheDescMemParsingTRACK  chipay_streamdata.o
    0x080048e0   0x00000018   Code   RO          772    i.cayStrmClear      chipay_streamdata.o
    0x080048f8   0x00000008   Code   RO          773    i.cayStrmCmdSet     chipay_streamdata.o
    0x08004900   0x00000006   Code   RO          778    i.cayStrmFifoINwrSize  chipay_streamdata.o
    0x08004906   0x00000020   Code   RO          780    i.cayStrmFifoOUwrB  chipay_streamdata.o
    0x08004926   0x0000000c   Code   RO          782    i.cayStrmFifoOUwrFree  chipay_streamdata.o
    0x08004932   0x00000004   Code   RO          785    i.cayStrmFlagGet    chipay_streamdata.o
    0x08004936   0x00000008   Code   RO          786    i.cayStrmFlagSet    chipay_streamdata.o
    0x0800493e   0x00000002   PAD
    0x08004940   0x00000714   Code   RO          787    i.cayStrmPool       chipay_streamdata.o
    0x08005054   0x000000e8   Code   RO          517    i.chayBootFlashDo   chipay_bootflasher.o
    0x0800513c   0x00000130   Code   RO         1015    i.chipAY_DacSetup   chipay_hardware.o
    0x0800526c   0x000000d4   Code   RO         1016    i.chipAY_HardwareInit  chipay_hardware.o
    0x08005340   0x0000003e   Code   RO         1017    i.chipAY_TimerFreq  chipay_hardware.o
    0x0800537e   0x00000002   PAD
    0x08005380   0x0000013c   Code   RO         1018    i.chipAY_TimerRCC   chipay_hardware.o
    0x080054bc   0x000000f0   Code   RO         1019    i.chipAY_TimerSetup  chipay_hardware.o
    0x080055ac   0x00000138   Code   RO         1020    i.chipAY_TimerSetupX  chipay_hardware.o
    0x080056e4   0x0000002c   Code   RO         1354    i.crc16_blk         rb_crc16.o
    0x08005710   0x0000002c   Code   RO         1355    i.crc16_blk_CCITT   rb_crc16.o
    0x0800573c   0x00000006   Code   RO         1168    i.flashaddr         bootflasherf4.o
    0x08005742   0x00000002   PAD
    0x08005744   0x0000000c   Code   RO         1169    i.flashsize         bootflasherf4.o
    0x08005750   0x00000010   Code   RO         1170    i.flashtop          bootflasherf4.o
    0x08005760   0x000000f6   Code   RO         6118    i.hdGPIO_Setup      hdports.o
    0x08005856   0x00000002   PAD
    0x08005858   0x00000010   Code   RO         6082    i.hdIntSetVector    hdinterrupt.o
    0x08005868   0x00000038   Code   RO         6083    i.hdIntSwitchInterruptToRAM  hdinterrupt.o
    0x080058a0   0x0000001a   Code   RO         6174    i.isTimerCompareOverflowX  hdtimers.o
    0x080058ba   0x00000002   PAD
    0x080058bc   0x00000060   Code   RO          471    i.main              main.o
    0x0800591c   0x0000005c   Code   RO          594    i.memalAllocateBaseListSize  memoryallocator.o
    0x08005978   0x0000003c   Code   RO          595    i.memalBaseListByAddr  memoryallocator.o
    0x080059b4   0x00000058   Code   RO          596    i.memalDescAllocate  memoryallocator.o
    0x08005a0c   0x00000050   Code   RO          599    i.memalDescFree     memoryallocator.o
    0x08005a5c   0x00000014   Code   RO          600    i.memalDescFreeSize  memoryallocator.o
    0x08005a70   0x00000038   Code   RO          601    i.memalDescGetAddr  memoryallocator.o
    0x08005aa8   0x00000040   Code   RO          604    i.memalDescInit     memoryallocator.o
    0x08005ae8   0x00000034   Code   RO          605    i.memalDescSetFlag  memoryallocator.o
    0x08005b1c   0x00000094   Code   RO          606    i.memalEraseAllData  memoryallocator.o
    0x08005bb0   0x0000003a   Code   RO          607    i.memalFillBLK      memoryallocator.o
    0x08005bea   0x00000002   PAD
    0x08005bec   0x00000048   Code   RO          608    i.memalFindBaseListSize  memoryallocator.o
    0x08005c34   0x00000220   Code   RO          609    i.memalInit         memoryallocator.o
    0x08005e54   0x00000094   Code   RO          610    i.memalMemDescAllocate  memoryallocator.o
    0x08005ee8   0x000000f0   Code   RO          612    i.memalMemPackCut   memoryallocator.o
    0x08005fd8   0x000000c8   Code   RO          614    i.memalWriteBLK     memoryallocator.o
    0x080060a0   0x00000008   Code   RO         1623    i.rb_IntToHEX       rb_util.o
    0x080060a8   0x000001b4   Code   RO         1624    i.rb_IntToProc      rb_util.o
    0x0800625c   0x00000008   Code   RO         1625    i.rb_IntToStr       rb_util.o
    0x08006264   0x0000000c   Code   RO         1486    i.rb_fifo_clear     rb_fifo.o
    0x08006270   0x00000024   Code   RO         1487    i.rb_fifo_flush     rb_fifo.o
    0x08006294   0x00000010   Code   RO         1488    i.rb_fifo_free      rb_fifo.o
    0x080062a4   0x0000001e   Code   RO         1495    i.rb_fifo_rd        rb_fifo.o
    0x080062c2   0x00000062   Code   RO         1496    i.rb_fifo_rd_D      rb_fifo.o
    0x08006324   0x0000000c   Code   RO         1499    i.rb_fifo_size      rb_fifo.o
    0x08006330   0x00000024   Code   RO         1500    i.rb_fifo_wr        rb_fifo.o
    0x08006354   0x0000000e   Code   RO         1501    i.rb_fifo_wr_D      rb_fifo.o
    0x08006362   0x00000142   Code   RO         1503    i.rb_fifo_wr_blk    rb_fifo.o
    0x080064a4   0x00000028   Code   RO          540    i.wsPoolDigitalPlayer  chipay_ws_process.o
    0x080064cc   0x00000018   Code   RO          541    i.wsPoolFlasherMode  chipay_ws_process.o
    0x080064e4   0x00000010   Code   RO          542    i.wsPoolStreamMode  chipay_ws_process.o
    0x080064f4   0x000001f4   Code   RO          543    i.wsPoolTransMode   chipay_ws_process.o
    0x080066e8   0x000000c0   Data   RO          201    .constdata          chipay_digitalplayer.o
    0x080067a8   0x00001670   Data   RO          518    .constdata          chipay_bootflasher.o
    0x08007e18   0x00000020   Data   RO         1021    .constdata          chipay_hardware.o
    0x08007e38   0x00000056   Data   RO         1172    .constdata          bootflasherf4.o
    0x08007e8e   0x00000030   Data   RO          942    .conststring        chipay_interrupt.o
    0x08007ebe   0x00000002   PAD
    0x08007ec0   0x00000060   Data   RO         6454    Region$$Table       anon$$obj.o


    Execution Region EReIROM0 (Base: 0x08100000, Size: 0x00000000, Max: 0x00000000, ABSOLUTE)

    Base Addr    Size         Type   Attr      Idx    E Section Name        Object

    0x08100000   0x00000000   Data   RO         6456    linker$$defined$$symbols  anon$$obj.o


    Execution Region RW_IRAM2 (Base: 0x10000000, Size: 0x00000000, Max: 0x00010000, ABSOLUTE)

    Base Addr    Size         Type   Attr      Idx    E Section Name        Object

    0x10000000   0x00000000   Data   RO         6459    linker$$defined$$symbols  anon$$obj.o
    0x10000000   0x00000000   Zero   RW         6460    linker$$defined$$symbols  anon$$obj.o


    Execution Region RWeIRAM2 (Base: 0x10010000, Size: 0x00000000, Max: 0x00000000, ABSOLUTE)

    Base Addr    Size         Type   Attr      Idx    E Section Name        Object

    0x10010000   0x00000000   Data   RO         6461    linker$$defined$$symbols  anon$$obj.o


    Execution Region RW_IRAM0 (Base: 0x20000000, Size: 0x000068f0, Max: 0x00018000, ABSOLUTE, COMPRESSED[0x000000a4])

    Base Addr    Size         Type   Attr      Idx    E Section Name        Object

    0x20000000   0x00000062   Code   RO         6319    .text               mc_w.l(uldiv.o)
    0x20000062   0x0000000c   Code   RO         6321    .text               mc_w.l(toupper.o)
    0x2000006e   0x00000024   Code   RO         6323    .text               mc_w.l(memcpya.o)
    0x20000092   0x00000024   Code   RO         6325    .text               mc_w.l(memseta.o)
    0x200000b6   0x00000018   Code   RO         6327    .text               mc_w.l(strcat.o)
    0x200000ce   0x0000000e   Code   RO         6329    .text               mc_w.l(strlen.o)
    0x200000dc   0x0000001c   Code   RO         6331    .text               mc_w.l(strcmp.o)
    0x200000f8   0x0000014e   Code   RO         6365    .text               mf_w.l(dadd.o)
    0x20000246   0x000000e4   Code   RO         6367    .text               mf_w.l(dmul.o)
    0x2000032a   0x000000de   Code   RO         6369    .text               mf_w.l(ddiv.o)
    0x20000408   0x0000001a   Code   RO         6371    .text               mf_w.l(dfltui.o)
    0x20000422   0x00000032   Code   RO         6373    .text               mf_w.l(dfixui.o)
    0x20000454   0x00000030   Code   RO         6375    .text               mf_w.l(dfixul.o)
    0x20000484   0x00000026   Code   RO         6377    .text               mf_w.l(f2d.o)
    0x200004aa   0x00000002   PAD
    0x200004ac   0x00000028   Code   RO         6379    .text               mf_w.l(cdcmple.o)
    0x200004d4   0x00000028   Code   RO         6381    .text               mf_w.l(cdrcmple.o)
    0x200004fc   0x00000038   Code   RO         6383    .text               mf_w.l(d2f.o)
    0x20000534   0x0000001e   Code   RO         6424    .text               mc_w.l(llshl.o)
    0x20000552   0x00000020   Code   RO         6426    .text               mc_w.l(llushr.o)
    0x20000572   0x00000024   Code   RO         6428    .text               mc_w.l(llsshr.o)
    0x20000596   0x00000000   Code   RO         6439    .text               mc_w.l(iusefp.o)
    0x20000596   0x0000006c   Code   RO         6440    .text               mf_w.l(fepilogue.o)
    0x20000602   0x000000be   Code   RO         6442    .text               mf_w.l(depilogue.o)
    0x200006c0   0x0000002e   Code   RO         6446    .text               mf_w.l(dscalb.o)
    0x200006ee   0x00000022   Code   RO         6448    .text               mf_w.l(dflti.o)
    0x20000710   0x000000a2   Code   RO         6452    .text               mf_w.l(dsqrt.o)
    0x200007b2   0x0000005c   Code   RO         6468    .text               mc_w.l(__dczerorl2.o)
    0x2000080e   0x00000002   PAD
    0x20000810   0x000001d0   Code   RO          915    RAMCODE             chipay.o
    0x200009e0   0x00000124   Code   RO         1014    RAMCODE             chipay_hardware.o
    0x20000b04   0x000003e8   Code   RO         1077    RAMCODE             chipay_wildsound.o
    0x20000eec   0x00000084   Code   RO         1106    RAMCODE             chipay_main.o
    0x20000f70   0x0000000a   Ven    RO         6499    Veneer$$Code        anon$$obj.o
    0x20000f7a   0x0000000a   Ven    RO         6500    Veneer$$Code        anon$$obj.o
    0x20000f84   0x0000000a   Ven    RO         6501    Veneer$$Code        anon$$obj.o
    0x20000f8e   0x0000000a   Ven    RO         6502    Veneer$$Code        anon$$obj.o
    0x20000f98   0x0000000a   Ven    RO         6503    Veneer$$Code        anon$$obj.o
    0x20000fa2   0x0000000a   Ven    RO         6504    Veneer$$Code        anon$$obj.o
    0x20000fac   0x00000030   Code   RO         6393    i.__ARM_fpclassify  m_wm.l(fpclassify.o)
    0x20000fdc   0x00000004   PAD
    0x20000fe0   0x00000c90   Code   RO         6302    i.__hardfp_pow      m_wm.l(pow.o)
    0x20001c70   0x000000f8   Code   RO         6395    i.__kernel_poly     m_wm.l(poly.o)
    0x20001d68   0x00000020   Code   RO         6385    i.__mathlib_dbl_underflow  m_wm.l(dunder.o)
    0x20001d88   0x0000000c   Code   RO         6434    i.__set_errno       mc_w.l(errno.o)
    0x20001d94   0x00000020   Code   RO         6389    i.fabs              m_wm.l(fabs.o)
    0x20001db4   0x0000006c   Code   RO         6338    i.malloc            mc_w.l(malloc.o)
    0x20001e20   0x0000006e   Code   RO         6400    i.sqrt              m_wm.l(sqrt.o)
    0x20001e8e   0x00000002   PAD
    0x20001e90   0x00000088   Data   RO         6305    .constdata          m_wm.l(pow.o)
    0x20001f18   0x00000008   Data   RO         6397    .constdata          m_wm.l(qnan.o)
    0x20001f20   0x000003c0   Data   RO         1080    RAMCODE             chipay_wildsound.o
    0x200022e0   0x00000004   Data   RW          616    .data               memoryallocator.o
    0x200022e4   0x00000010   Data   RW          790    .data               chipay_streamdata.o
    0x200022f4   0x00000010   Data   RW          791    .data               chipay_streamdata.o
    0x20002304   0x0000004c   Data   RW          792    .data               chipay_streamdata.o
    0x20002350   0x00000038   Data   RW          943    .data               chipay_interrupt.o
    0x20002388   0x00000014   Data   RW         1173    .data               bootflasherf4.o
    0x2000239c   0x00000010   Data   RW         3932    .data               stm32f4xx_rcc.o
    0x200023ac   0x00000005   Data   RW         5812    .data               hardware.o
    0x200023b1   0x00000003   PAD
    0x200023b4   0x00000020   Data   RW         5900    .data               interface.o
    0x200023d4   0x0000001c   Data   RW         6177    .data               hdtimers.o
    0x200023f0   0x00000004   Data   RW         6430    .data               mc_w.l(mvars.o)
    0x200023f4   0x00000004   Data   RW         6431    .data               mc_w.l(mvars.o)
    0x200023f8   0x00000004   Data   RW         6435    .data               mc_w.l(errno.o)
    0x200023fc   0x00000010   Data   RW         1022    RAMCODE             chipay_hardware.o
    0x2000240c   0x0000029a   Data   RW         1078    RAMCODE             chipay_wildsound.o
    0x200026a6   0x00000001   Data   RW         1079    RAMCODE             chipay_wildsound.o
    0x200026a7   0x00000001   PAD
    0x200026a8   0x00000010   Data   RW         1107    RAMCODE             chipay_main.o
    0x200026b8   0x00000028   Data   RW         1108    RAMCODE             chipay_main.o
    0x200026e0   0x00000010   Data   RW         1109    RAMCODE             chipay_main.o
    0x200026f0   0x00000004   Data   RW         1111    RAMCODE             chipay_main.o
    0x200026f4   0x00000008   Data   RW         1112    RAMCODE             chipay_main.o
    0x200026fc   0x00000004   Data   RW         1114    RAMCODE             chipay_main.o
    0x20002700   0x00000008   Data   RW         1115    RAMCODE             chipay_main.o
    0x20002708   0x00003980   Zero   RW          200    .bss                chipay_digitalplayer.o
    0x20006088   0x00000080   Zero   RW          615    .bss                memoryallocator.o
    0x20006108   0x00000080   Zero   RW          788    .bss                chipay_streamdata.o
    0x20006188   0x00000080   Zero   RW          789    .bss                chipay_streamdata.o
    0x20006208   0x0000007b   Zero   RW         1171    .bss                bootflasherf4.o
    0x20006283   0x00000100   Zero   RW         5897    .bss                interface.o
    0x20006383   0x00000020   Zero   RW         5898    .bss                interface.o
    0x200063a3   0x00000001   PAD
    0x200063a4   0x00000010   Zero   RW         6175    .bss                hdtimers.o
    0x200063b4   0x00000004   PAD
    0x200063b8   0x00000200   Zero   RW            2    HEAP                startup_stm32f40_41xxx.o
    0x200065b8   0x00000014   Zero   RW         1023    RAMCODE             chipay_hardware.o
    0x200065cc   0x00000010   Zero   RW         1110    RAMCODE             chipay_main.o
    0x200065dc   0x00000010   Zero   RW         1113    RAMCODE             chipay_main.o
    0x200065ec   0x00000004   PAD
    0x200065f0   0x00000300   Zero   RW            1    STACK               startup_stm32f40_41xxx.o


    Execution Region RWeIRAM0 (Base: 0x20018000, Size: 0x00000000, Max: 0x00000000, ABSOLUTE)

    Base Addr    Size         Type   Attr      Idx    E Section Name        Object

    0x20018000   0x00000000   Data   RO         6457    linker$$defined$$symbols  anon$$obj.o


    Execution Region RW_IRAM1 (Base: 0x20018000, Size: 0x00001720, Max: 0x00008000, ABSOLUTE, COMPRESSED[0x00000020])

    Base Addr    Size         Type   Attr      Idx    E Section Name        Object

    0x20018000   0x0000000a   Ven    RO         6505    Veneer$$Code        anon$$obj.o
    0x2001800a   0x0000000a   Ven    RO         6506    Veneer$$Code        anon$$obj.o
    0x20018014   0x0000000a   Ven    RO         6507    Veneer$$Code        anon$$obj.o
    0x2001801e   0x0000000a   Ven    RO         6508    Veneer$$Code        anon$$obj.o
    0x20018028   0x0000000a   Ven    RO         6509    Veneer$$Code        anon$$obj.o
    0x20018032   0x0000000a   Ven    RO         6510    Veneer$$Code        anon$$obj.o
    0x2001803c   0x0000000a   Ven    RO         6511    Veneer$$Code        anon$$obj.o
    0x20018046   0x0000000a   Ven    RO         6512    Veneer$$Code        anon$$obj.o
    0x20018050   0x0000000a   Ven    RO         6513    Veneer$$Code        anon$$obj.o
    0x2001805a   0x0000000a   Ven    RO         6514    Veneer$$Code        anon$$obj.o
    0x20018064   0x0000000a   Ven    RO         6515    Veneer$$Code        anon$$obj.o
    0x2001806e   0x0000000a   Ven    RO         6516    Veneer$$Code        anon$$obj.o
    0x20018078   0x00000058   Code   RO          935    ccmram              chipay_interrupt.o
    0x200180d0   0x00000c64   Code   RO          937    ccmram              chipay_interrupt.o
    0x20018d34   0x0000052f   Data   RO          944    ccmram              chipay_interrupt.o
    0x20019263   0x00000001   PAD
    0x20019264   0x0000001d   Data   RW          946    ccmram              chipay_interrupt.o
    0x20019281   0x0000007f   PAD
    0x20019300   0x00000400   Data   RW         6084    ccmram              hdinterrupt.o
    0x20019700   0x00000020   Zero   RW          951    ccmram              chipay_interrupt.o


    Execution Region RWeIRAM1 (Base: 0x20020000, Size: 0x00000000, Max: 0x00000000, ABSOLUTE)

    Base Addr    Size         Type   Attr      Idx    E Section Name        Object

    0x20020000   0x00000000   Data   RO         6458    linker$$defined$$symbols  anon$$obj.o


==============================================================================

Image component sizes


      Code (inc. data)   RO Data    RW Data    ZI Data      Debug   Object Name

      1122         54         86         20        123      13903   bootflasherf4.o
       464         32          0          0          0       2932   chipay.o
       232         52       5744          0          0       1944   chipay_bootflasher.o
      6290        214        192          0      14720      16631   chipay_digitalplayer.o
       954         16          0          0          0     291696   chipay_digitalsample.o
      1738        152         32         16         20      33348   chipay_hardware.o
      5412        498       1375         85         32      44957   chipay_interrupt.o
       132         26          0         96         32       3315   chipay_main.o
      2270        416          0        108        256      12088   chipay_streamdata.o
      1000        102        960        667          0       7546   chipay_wildsound.o
       580         44          0          0          0      12032   chipay_ws_process.o
      1282         74          0          5          0      11425   hardware.o
        72         16          0       1024          0       1919   hdinterrupt.o
       246          8          0          0          0       1459   hdports.o
       576         86          0         28         16       6346   hdtimers.o
      1000         94          0         32        288      43006   interface.o
       286         72          0          0          0       2104   main.o
      2062        308          0          4        128      14754   memoryallocator.o
       100          8          0          0          0       2480   misc.o
       256          0          0          0          0       7643   process.o
        88          0          0          0          0       1641   rb_crc16.o
       576          0          0          0          0       6128   rb_fifo.o
       452         26          0          0          0       2772   rb_util.o
        36          8        392          0       1280        808   startup_stm32f40_41xxx.o
         0          0          0          0          0      12744   stm32f4xx_adc.o
        88         12          0          0          0       6830   stm32f4xx_dac.o
       200         16          0          0          0      15832   stm32f4xx_dma.o
       124         10          0          0          0       3697   stm32f4xx_exti.o
       478         84          0          0          0      12838   stm32f4xx_flash.o
       194          0          0          0          0       7795   stm32f4xx_gpio.o
       580        112          0         16          0      23436   stm32f4xx_rcc.o
        28          6          0          0          0        474   stm32f4xx_rng.o
       220         12          0          0          0      11725   stm32f4xx_spi.o
        40          6          0          0          0        568   stm32f4xx_syscfg.o
      1172         60          0          0          0      35420   stm32f4xx_tim.o
       344         10          0          0          0      10469   stm32f4xx_usart.o

    ----------------------------------------------------------------------
     31192       2634       8880       2232      16904     684705   Object Totals
       470          0         96          0          0          0   (incl. Generated)
        28          0          3        131          9          0   (incl. Padding)

    ----------------------------------------------------------------------

      Code (inc. data)   RO Data    RW Data    ZI Data      Debug   Library Member Name

        32          8          0          0          0        124   dunder.o
        32          0          0          0          0        124   fabs.o
        48          0          0          0          0        124   fpclassify.o
       248          0          0          0          0        152   poly.o
      3216        310        136          0          0        216   pow.o
         0          0          8          0          0          0   qnan.o
       110          0          0          0          0        148   sqrt.o
        92          0          0          0          0          0   __dczerorl2.o
         0          0          0          0          0          0   entry.o
         0          0          0          0          0          0   entry10a.o
         0          0          0          0          0          0   entry11a.o
         8          4          0          0          0          0   entry2.o
         4          0          0          0          0          0   entry5.o
         0          0          0          0          0          0   entry7b.o
         0          0          0          0          0          0   entry8b.o
         8          4          0          0          0          0   entry9a.o
        12          6          0          4          0         68   errno.o
        30          0          0          0          0          0   handlers.o
        36          8          0          0          0         68   init.o
         0          0          0          0          0          0   iusefp.o
        30          0          0          0          0         68   llshl.o
        36          0          0          0          0         68   llsshr.o
        32          0          0          0          0         68   llushr.o
       108         16          0          0          0         84   malloc.o
        36          0          0          0          0         68   memcpya.o
        36          0          0          0          0        108   memseta.o
         0          0          0          8          0          0   mvars.o
        24          0          0          0          0         68   strcat.o
        28          0          0          0          0         76   strcmp.o
        14          0          0          0          0         68   strlen.o
        12          0          0          0          0         68   toupper.o
        98          0          0          0          0         92   uldiv.o
        40          2          0          0          0         68   cdcmple.o
        40          2          0          0          0         68   cdrcmple.o
        56          0          0          0          0         88   d2f.o
       334          0          0          0          0        148   dadd.o
       222          0          0          0          0        100   ddiv.o
       190          0          0          0          0        176   depilogue.o
        50          0          0          0          0         76   dfixui.o
        48          0          0          0          0         68   dfixul.o
        34          0          0          0          0         76   dflti.o
        26          0          0          0          0         76   dfltui.o
       228          0          0          0          0         96   dmul.o
        46          0          0          0          0         80   dscalb.o
       162          0          0          0          0        100   dsqrt.o
        38          0          0          0          0         68   f2d.o
       108          0          0          0          0        168   fepilogue.o

    ----------------------------------------------------------------------
      5964        360        144         12          0       3316   Library Totals
        12          0          0          0          0          0   (incl. Padding)

    ----------------------------------------------------------------------

      Code (inc. data)   RO Data    RW Data    ZI Data      Debug   Library Name

      3686        318        144          0          0        888   m_wm.l
       644         38          0         12          0        972   mc_w.l
      1622          4          0          0          0       1456   mf_w.l

    ----------------------------------------------------------------------
      5964        360        144         12          0       3316   Library Totals

    ----------------------------------------------------------------------

==============================================================================


      Code (inc. data)   RO Data    RW Data    ZI Data      Debug   

     37156       2994       9024       2244      16904     663321   Grand Totals
     37156       2994       9024        196      16904     663321   ELF Image Totals (compressed)
     37156       2994       9024        196          0          0   ROM Totals

==============================================================================

    Total RO  Size (Code + RO Data)                46180 (  45.10kB)
    Total RW  Size (RW Data + ZI Data)             19148 (  18.70kB)
    Total ROM Size (Code + RO Data + RW Data)      46376 (  45.29kB)

==============================================================================

